

Microchip MPLAB XC8 Assembler V2.05 build -831301201 
                                                                                               Fri Jul 10 16:28:29 2020

Microchip MPLAB XC8 C Compiler v2.05 (Free license) build 20181220022703 Og1 
     1                           	processor	16F1827
     2                           	opt	pw 120
     3                           	opt	flic
     4                           	psect	idataBANK0,global,class=CODE,delta=2
     5                           	psect	nvCOMMON,global,class=COMMON,space=1,delta=1
     6                           	psect	nvBANK0,global,class=BANK0,space=1,delta=1
     7                           	psect	cinit,global,class=CODE,merge=1,delta=2
     8                           	psect	bssCOMMON,global,class=COMMON,space=1,delta=1
     9                           	psect	dataBANK0,global,class=BANK0,space=1,delta=1
    10                           	psect	inittext,global,class=CODE,delta=2
    11                           	psect	cstackCOMMON,global,class=COMMON,space=1,delta=1
    12                           	psect	cstackBANK0,global,class=BANK0,space=1,delta=1
    13                           	psect	maintext,global,class=CODE,merge=1,split=1,delta=2
    14                           	psect	text1,local,class=CODE,merge=1,delta=2
    15                           	psect	text2,local,class=CODE,merge=1,delta=2
    16                           	psect	text3,local,class=CODE,merge=1,delta=2
    17                           	psect	text4,local,class=CODE,merge=1,delta=2
    18                           	psect	text5,local,class=CODE,merge=1,delta=2
    19                           	psect	text6,local,class=CODE,merge=1,delta=2
    20                           	psect	text7,local,class=CODE,merge=1,delta=2
    21                           	psect	text8,local,class=CODE,merge=1,delta=2
    22                           	psect	text9,local,class=CODE,merge=1,delta=2
    23                           	psect	text10,local,class=CODE,merge=1,delta=2
    24                           	psect	text11,local,class=CODE,merge=1,delta=2
    25                           	psect	text12,local,class=CODE,merge=1,delta=2
    26                           	psect	text13,local,class=CODE,merge=1,delta=2
    27                           	psect	text14,local,class=CODE,merge=1,delta=2
    28                           	psect	intentry,global,class=CODE,delta=2
    29                           	psect	text16,local,class=CODE,merge=1,delta=2
    30                           	psect	text17,local,class=CODE,merge=1,delta=2
    31                           	psect	text18,local,class=CODE,merge=1,delta=2
    32                           	psect	text19,local,class=CODE,merge=1,delta=2
    33                           	psect	text20,local,class=CODE,merge=1,delta=2
    34                           	psect	text21,local,class=CODE,merge=1,delta=2
    35                           	psect	text22,local,class=CODE,merge=1,delta=2
    36                           	psect	text23,local,class=CODE,merge=1,delta=2
    37                           	psect	text24,local,class=CODE,merge=1,delta=2
    38                           	psect	text25,local,class=CODE,merge=1,delta=2
    39                           	psect	text26,local,class=CODE,merge=1,delta=2
    40                           	psect	text27,local,class=CODE,merge=1,delta=2
    41                           	psect	text28,local,class=CODE,merge=1,delta=2
    42                           	psect	text29,local,class=CODE,merge=1,delta=2
    43                           	dabs	1,0x7E,2
    44  0000                     
    45                           ; Version 2.05
    46                           ; Generated 20/12/2018 GMT
    47                           ; 
    48                           ; Copyright © 2018, Microchip Technology Inc. and its subsidiaries ("Microchip")
    49                           ; All rights reserved.
    50                           ; 
    51                           ; This software is developed by Microchip Technology Inc. and its subsidiaries ("Microch
      +                          ip").
    52                           ; 
    53                           ; Redistribution and use in source and binary forms, with or without modification, are
    54                           ; permitted provided that the following conditions are met:
    55                           ; 
    56                           ;     1. Redistributions of source code must retain the above copyright notice, this lis
      +                          t of
    57                           ;        conditions and the following disclaimer.
    58                           ; 
    59                           ;     2. Redistributions in binary form must reproduce the above copyright notice, this 
      +                          list
    60                           ;        of conditions and the following disclaimer in the documentation and/or other
    61                           ;        materials provided with the distribution.
    62                           ; 
    63                           ;     3. Microchip's name may not be used to endorse or promote products derived from th
      +                          is
    64                           ;        software without specific prior written permission.
    65                           ; 
    66                           ; THIS SOFTWARE IS PROVIDED BY MICROCHIP "AS IS" AND ANY EXPRESS OR IMPLIED WARRANTIES,
    67                           ; INCLUDING, BUT NOT LIMITED TO, THE IMPLIED WARRANTIES OF MERCHANTABILITY AND FITNESS F
      +                          OR
    68                           ; PURPOSE ARE DISCLAIMED.  IN NO EVENT SHALL MICROCHIP BE LIABLE FOR ANY DIRECT, INDIREC
      +                          T,
    69                           ; INCIDENTAL, SPECIAL, EXEMPLARY, OR CONSEQUENTIAL DAMAGES (INCLUDING BUT NOT LIMITED TO
    70                           ; PROCUREMENT OF SUBSTITUTE GOODS OR SERVICES; LOSS OF USE, DATA OR PROFITS; OR BUSINESS
    71                           ; INTERRUPTION) HOWSOEVER CAUSED AND ON ANY THEORY OF LIABILITY, WHETHER IN CONTRACT, ST
      +                          RICT
    72                           ; LIABILITY, OR TORT (INCLUDING NEGLIGENCE OR OTHERWISE) ARISING IN ANY WAY OUT OF THE U
      +                          SE OF
    73                           ; THIS SOFTWARE, EVEN IF ADVISED OF THE POSSIBILITY OF SUCH DAMAGE.
    74                           ; 
    75                           ; 
    76                           ; Code-generator required, PIC16F1827 Definitions
    77                           ; 
    78                           ; SFR Addresses
    79  0000                     	;# 
    80  0001                     	;# 
    81  0002                     	;# 
    82  0003                     	;# 
    83  0004                     	;# 
    84  0005                     	;# 
    85  0006                     	;# 
    86  0007                     	;# 
    87  0008                     	;# 
    88  0009                     	;# 
    89  000A                     	;# 
    90  000B                     	;# 
    91  000C                     	;# 
    92  000D                     	;# 
    93  0011                     	;# 
    94  0012                     	;# 
    95  0013                     	;# 
    96  0014                     	;# 
    97  0015                     	;# 
    98  0016                     	;# 
    99  0016                     	;# 
   100  0017                     	;# 
   101  0018                     	;# 
   102  0019                     	;# 
   103  001A                     	;# 
   104  001B                     	;# 
   105  001C                     	;# 
   106  001E                     	;# 
   107  001F                     	;# 
   108  008C                     	;# 
   109  008D                     	;# 
   110  0091                     	;# 
   111  0092                     	;# 
   112  0093                     	;# 
   113  0094                     	;# 
   114  0095                     	;# 
   115  0096                     	;# 
   116  0097                     	;# 
   117  0098                     	;# 
   118  0099                     	;# 
   119  009A                     	;# 
   120  009B                     	;# 
   121  009B                     	;# 
   122  009C                     	;# 
   123  009D                     	;# 
   124  009E                     	;# 
   125  010C                     	;# 
   126  010D                     	;# 
   127  0111                     	;# 
   128  0112                     	;# 
   129  0113                     	;# 
   130  0114                     	;# 
   131  0115                     	;# 
   132  0116                     	;# 
   133  0117                     	;# 
   134  0118                     	;# 
   135  0119                     	;# 
   136  011A                     	;# 
   137  011B                     	;# 
   138  011D                     	;# 
   139  011E                     	;# 
   140  018C                     	;# 
   141  018D                     	;# 
   142  0191                     	;# 
   143  0191                     	;# 
   144  0192                     	;# 
   145  0193                     	;# 
   146  0193                     	;# 
   147  0193                     	;# 
   148  0194                     	;# 
   149  0195                     	;# 
   150  0196                     	;# 
   151  0199                     	;# 
   152  019A                     	;# 
   153  019B                     	;# 
   154  019B                     	;# 
   155  019B                     	;# 
   156  019B                     	;# 
   157  019C                     	;# 
   158  019C                     	;# 
   159  019D                     	;# 
   160  019E                     	;# 
   161  019F                     	;# 
   162  020C                     	;# 
   163  020D                     	;# 
   164  0211                     	;# 
   165  0211                     	;# 
   166  0212                     	;# 
   167  0212                     	;# 
   168  0213                     	;# 
   169  0213                     	;# 
   170  0214                     	;# 
   171  0214                     	;# 
   172  0215                     	;# 
   173  0215                     	;# 
   174  0215                     	;# 
   175  0216                     	;# 
   176  0216                     	;# 
   177  0217                     	;# 
   178  0217                     	;# 
   179  0219                     	;# 
   180  021A                     	;# 
   181  021B                     	;# 
   182  021C                     	;# 
   183  021D                     	;# 
   184  021E                     	;# 
   185  021F                     	;# 
   186  0291                     	;# 
   187  0291                     	;# 
   188  0292                     	;# 
   189  0293                     	;# 
   190  0294                     	;# 
   191  0295                     	;# 
   192  0295                     	;# 
   193  0296                     	;# 
   194  0298                     	;# 
   195  0298                     	;# 
   196  0299                     	;# 
   197  029A                     	;# 
   198  029B                     	;# 
   199  029C                     	;# 
   200  029C                     	;# 
   201  029D                     	;# 
   202  029E                     	;# 
   203  029E                     	;# 
   204  0311                     	;# 
   205  0311                     	;# 
   206  0312                     	;# 
   207  0313                     	;# 
   208  0318                     	;# 
   209  0318                     	;# 
   210  0319                     	;# 
   211  031A                     	;# 
   212  0394                     	;# 
   213  0395                     	;# 
   214  0396                     	;# 
   215  039A                     	;# 
   216  039C                     	;# 
   217  039D                     	;# 
   218  039E                     	;# 
   219  039F                     	;# 
   220  0415                     	;# 
   221  0416                     	;# 
   222  0417                     	;# 
   223  041C                     	;# 
   224  041D                     	;# 
   225  041E                     	;# 
   226  0FE4                     	;# 
   227  0FE5                     	;# 
   228  0FE6                     	;# 
   229  0FE7                     	;# 
   230  0FE8                     	;# 
   231  0FE9                     	;# 
   232  0FEA                     	;# 
   233  0FEB                     	;# 
   234  0FED                     	;# 
   235  0FEE                     	;# 
   236  0FEF                     	;# 
   237  0000                     	;# 
   238  0001                     	;# 
   239  0002                     	;# 
   240  0003                     	;# 
   241  0004                     	;# 
   242  0005                     	;# 
   243  0006                     	;# 
   244  0007                     	;# 
   245  0008                     	;# 
   246  0009                     	;# 
   247  000A                     	;# 
   248  000B                     	;# 
   249  000C                     	;# 
   250  000D                     	;# 
   251  0011                     	;# 
   252  0012                     	;# 
   253  0013                     	;# 
   254  0014                     	;# 
   255  0015                     	;# 
   256  0016                     	;# 
   257  0016                     	;# 
   258  0017                     	;# 
   259  0018                     	;# 
   260  0019                     	;# 
   261  001A                     	;# 
   262  001B                     	;# 
   263  001C                     	;# 
   264  001E                     	;# 
   265  001F                     	;# 
   266  008C                     	;# 
   267  008D                     	;# 
   268  0091                     	;# 
   269  0092                     	;# 
   270  0093                     	;# 
   271  0094                     	;# 
   272  0095                     	;# 
   273  0096                     	;# 
   274  0097                     	;# 
   275  0098                     	;# 
   276  0099                     	;# 
   277  009A                     	;# 
   278  009B                     	;# 
   279  009B                     	;# 
   280  009C                     	;# 
   281  009D                     	;# 
   282  009E                     	;# 
   283  010C                     	;# 
   284  010D                     	;# 
   285  0111                     	;# 
   286  0112                     	;# 
   287  0113                     	;# 
   288  0114                     	;# 
   289  0115                     	;# 
   290  0116                     	;# 
   291  0117                     	;# 
   292  0118                     	;# 
   293  0119                     	;# 
   294  011A                     	;# 
   295  011B                     	;# 
   296  011D                     	;# 
   297  011E                     	;# 
   298  018C                     	;# 
   299  018D                     	;# 
   300  0191                     	;# 
   301  0191                     	;# 
   302  0192                     	;# 
   303  0193                     	;# 
   304  0193                     	;# 
   305  0193                     	;# 
   306  0194                     	;# 
   307  0195                     	;# 
   308  0196                     	;# 
   309  0199                     	;# 
   310  019A                     	;# 
   311  019B                     	;# 
   312  019B                     	;# 
   313  019B                     	;# 
   314  019B                     	;# 
   315  019C                     	;# 
   316  019C                     	;# 
   317  019D                     	;# 
   318  019E                     	;# 
   319  019F                     	;# 
   320  020C                     	;# 
   321  020D                     	;# 
   322  0211                     	;# 
   323  0211                     	;# 
   324  0212                     	;# 
   325  0212                     	;# 
   326  0213                     	;# 
   327  0213                     	;# 
   328  0214                     	;# 
   329  0214                     	;# 
   330  0215                     	;# 
   331  0215                     	;# 
   332  0215                     	;# 
   333  0216                     	;# 
   334  0216                     	;# 
   335  0217                     	;# 
   336  0217                     	;# 
   337  0219                     	;# 
   338  021A                     	;# 
   339  021B                     	;# 
   340  021C                     	;# 
   341  021D                     	;# 
   342  021E                     	;# 
   343  021F                     	;# 
   344  0291                     	;# 
   345  0291                     	;# 
   346  0292                     	;# 
   347  0293                     	;# 
   348  0294                     	;# 
   349  0295                     	;# 
   350  0295                     	;# 
   351  0296                     	;# 
   352  0298                     	;# 
   353  0298                     	;# 
   354  0299                     	;# 
   355  029A                     	;# 
   356  029B                     	;# 
   357  029C                     	;# 
   358  029C                     	;# 
   359  029D                     	;# 
   360  029E                     	;# 
   361  029E                     	;# 
   362  0311                     	;# 
   363  0311                     	;# 
   364  0312                     	;# 
   365  0313                     	;# 
   366  0318                     	;# 
   367  0318                     	;# 
   368  0319                     	;# 
   369  031A                     	;# 
   370  0394                     	;# 
   371  0395                     	;# 
   372  0396                     	;# 
   373  039A                     	;# 
   374  039C                     	;# 
   375  039D                     	;# 
   376  039E                     	;# 
   377  039F                     	;# 
   378  0415                     	;# 
   379  0416                     	;# 
   380  0417                     	;# 
   381  041C                     	;# 
   382  041D                     	;# 
   383  041E                     	;# 
   384  0FE4                     	;# 
   385  0FE5                     	;# 
   386  0FE6                     	;# 
   387  0FE7                     	;# 
   388  0FE8                     	;# 
   389  0FE9                     	;# 
   390  0FEA                     	;# 
   391  0FEB                     	;# 
   392  0FED                     	;# 
   393  0FEE                     	;# 
   394  0FEF                     	;# 
   395  0000                     	;# 
   396  0001                     	;# 
   397  0002                     	;# 
   398  0003                     	;# 
   399  0004                     	;# 
   400  0005                     	;# 
   401  0006                     	;# 
   402  0007                     	;# 
   403  0008                     	;# 
   404  0009                     	;# 
   405  000A                     	;# 
   406  000B                     	;# 
   407  000C                     	;# 
   408  000D                     	;# 
   409  0011                     	;# 
   410  0012                     	;# 
   411  0013                     	;# 
   412  0014                     	;# 
   413  0015                     	;# 
   414  0016                     	;# 
   415  0016                     	;# 
   416  0017                     	;# 
   417  0018                     	;# 
   418  0019                     	;# 
   419  001A                     	;# 
   420  001B                     	;# 
   421  001C                     	;# 
   422  001E                     	;# 
   423  001F                     	;# 
   424  008C                     	;# 
   425  008D                     	;# 
   426  0091                     	;# 
   427  0092                     	;# 
   428  0093                     	;# 
   429  0094                     	;# 
   430  0095                     	;# 
   431  0096                     	;# 
   432  0097                     	;# 
   433  0098                     	;# 
   434  0099                     	;# 
   435  009A                     	;# 
   436  009B                     	;# 
   437  009B                     	;# 
   438  009C                     	;# 
   439  009D                     	;# 
   440  009E                     	;# 
   441  010C                     	;# 
   442  010D                     	;# 
   443  0111                     	;# 
   444  0112                     	;# 
   445  0113                     	;# 
   446  0114                     	;# 
   447  0115                     	;# 
   448  0116                     	;# 
   449  0117                     	;# 
   450  0118                     	;# 
   451  0119                     	;# 
   452  011A                     	;# 
   453  011B                     	;# 
   454  011D                     	;# 
   455  011E                     	;# 
   456  018C                     	;# 
   457  018D                     	;# 
   458  0191                     	;# 
   459  0191                     	;# 
   460  0192                     	;# 
   461  0193                     	;# 
   462  0193                     	;# 
   463  0193                     	;# 
   464  0194                     	;# 
   465  0195                     	;# 
   466  0196                     	;# 
   467  0199                     	;# 
   468  019A                     	;# 
   469  019B                     	;# 
   470  019B                     	;# 
   471  019B                     	;# 
   472  019B                     	;# 
   473  019C                     	;# 
   474  019C                     	;# 
   475  019D                     	;# 
   476  019E                     	;# 
   477  019F                     	;# 
   478  020C                     	;# 
   479  020D                     	;# 
   480  0211                     	;# 
   481  0211                     	;# 
   482  0212                     	;# 
   483  0212                     	;# 
   484  0213                     	;# 
   485  0213                     	;# 
   486  0214                     	;# 
   487  0214                     	;# 
   488  0215                     	;# 
   489  0215                     	;# 
   490  0215                     	;# 
   491  0216                     	;# 
   492  0216                     	;# 
   493  0217                     	;# 
   494  0217                     	;# 
   495  0219                     	;# 
   496  021A                     	;# 
   497  021B                     	;# 
   498  021C                     	;# 
   499  021D                     	;# 
   500  021E                     	;# 
   501  021F                     	;# 
   502  0291                     	;# 
   503  0291                     	;# 
   504  0292                     	;# 
   505  0293                     	;# 
   506  0294                     	;# 
   507  0295                     	;# 
   508  0295                     	;# 
   509  0296                     	;# 
   510  0298                     	;# 
   511  0298                     	;# 
   512  0299                     	;# 
   513  029A                     	;# 
   514  029B                     	;# 
   515  029C                     	;# 
   516  029C                     	;# 
   517  029D                     	;# 
   518  029E                     	;# 
   519  029E                     	;# 
   520  0311                     	;# 
   521  0311                     	;# 
   522  0312                     	;# 
   523  0313                     	;# 
   524  0318                     	;# 
   525  0318                     	;# 
   526  0319                     	;# 
   527  031A                     	;# 
   528  0394                     	;# 
   529  0395                     	;# 
   530  0396                     	;# 
   531  039A                     	;# 
   532  039C                     	;# 
   533  039D                     	;# 
   534  039E                     	;# 
   535  039F                     	;# 
   536  0415                     	;# 
   537  0416                     	;# 
   538  0417                     	;# 
   539  041C                     	;# 
   540  041D                     	;# 
   541  041E                     	;# 
   542  0FE4                     	;# 
   543  0FE5                     	;# 
   544  0FE6                     	;# 
   545  0FE7                     	;# 
   546  0FE8                     	;# 
   547  0FE9                     	;# 
   548  0FEA                     	;# 
   549  0FEB                     	;# 
   550  0FED                     	;# 
   551  0FEE                     	;# 
   552  0FEF                     	;# 
   553  0000                     	;# 
   554  0001                     	;# 
   555  0002                     	;# 
   556  0003                     	;# 
   557  0004                     	;# 
   558  0005                     	;# 
   559  0006                     	;# 
   560  0007                     	;# 
   561  0008                     	;# 
   562  0009                     	;# 
   563  000A                     	;# 
   564  000B                     	;# 
   565  000C                     	;# 
   566  000D                     	;# 
   567  0011                     	;# 
   568  0012                     	;# 
   569  0013                     	;# 
   570  0014                     	;# 
   571  0015                     	;# 
   572  0016                     	;# 
   573  0016                     	;# 
   574  0017                     	;# 
   575  0018                     	;# 
   576  0019                     	;# 
   577  001A                     	;# 
   578  001B                     	;# 
   579  001C                     	;# 
   580  001E                     	;# 
   581  001F                     	;# 
   582  008C                     	;# 
   583  008D                     	;# 
   584  0091                     	;# 
   585  0092                     	;# 
   586  0093                     	;# 
   587  0094                     	;# 
   588  0095                     	;# 
   589  0096                     	;# 
   590  0097                     	;# 
   591  0098                     	;# 
   592  0099                     	;# 
   593  009A                     	;# 
   594  009B                     	;# 
   595  009B                     	;# 
   596  009C                     	;# 
   597  009D                     	;# 
   598  009E                     	;# 
   599  010C                     	;# 
   600  010D                     	;# 
   601  0111                     	;# 
   602  0112                     	;# 
   603  0113                     	;# 
   604  0114                     	;# 
   605  0115                     	;# 
   606  0116                     	;# 
   607  0117                     	;# 
   608  0118                     	;# 
   609  0119                     	;# 
   610  011A                     	;# 
   611  011B                     	;# 
   612  011D                     	;# 
   613  011E                     	;# 
   614  018C                     	;# 
   615  018D                     	;# 
   616  0191                     	;# 
   617  0191                     	;# 
   618  0192                     	;# 
   619  0193                     	;# 
   620  0193                     	;# 
   621  0193                     	;# 
   622  0194                     	;# 
   623  0195                     	;# 
   624  0196                     	;# 
   625  0199                     	;# 
   626  019A                     	;# 
   627  019B                     	;# 
   628  019B                     	;# 
   629  019B                     	;# 
   630  019B                     	;# 
   631  019C                     	;# 
   632  019C                     	;# 
   633  019D                     	;# 
   634  019E                     	;# 
   635  019F                     	;# 
   636  020C                     	;# 
   637  020D                     	;# 
   638  0211                     	;# 
   639  0211                     	;# 
   640  0212                     	;# 
   641  0212                     	;# 
   642  0213                     	;# 
   643  0213                     	;# 
   644  0214                     	;# 
   645  0214                     	;# 
   646  0215                     	;# 
   647  0215                     	;# 
   648  0215                     	;# 
   649  0216                     	;# 
   650  0216                     	;# 
   651  0217                     	;# 
   652  0217                     	;# 
   653  0219                     	;# 
   654  021A                     	;# 
   655  021B                     	;# 
   656  021C                     	;# 
   657  021D                     	;# 
   658  021E                     	;# 
   659  021F                     	;# 
   660  0291                     	;# 
   661  0291                     	;# 
   662  0292                     	;# 
   663  0293                     	;# 
   664  0294                     	;# 
   665  0295                     	;# 
   666  0295                     	;# 
   667  0296                     	;# 
   668  0298                     	;# 
   669  0298                     	;# 
   670  0299                     	;# 
   671  029A                     	;# 
   672  029B                     	;# 
   673  029C                     	;# 
   674  029C                     	;# 
   675  029D                     	;# 
   676  029E                     	;# 
   677  029E                     	;# 
   678  0311                     	;# 
   679  0311                     	;# 
   680  0312                     	;# 
   681  0313                     	;# 
   682  0318                     	;# 
   683  0318                     	;# 
   684  0319                     	;# 
   685  031A                     	;# 
   686  0394                     	;# 
   687  0395                     	;# 
   688  0396                     	;# 
   689  039A                     	;# 
   690  039C                     	;# 
   691  039D                     	;# 
   692  039E                     	;# 
   693  039F                     	;# 
   694  0415                     	;# 
   695  0416                     	;# 
   696  0417                     	;# 
   697  041C                     	;# 
   698  041D                     	;# 
   699  041E                     	;# 
   700  0FE4                     	;# 
   701  0FE5                     	;# 
   702  0FE6                     	;# 
   703  0FE7                     	;# 
   704  0FE8                     	;# 
   705  0FE9                     	;# 
   706  0FEA                     	;# 
   707  0FEB                     	;# 
   708  0FED                     	;# 
   709  0FEE                     	;# 
   710  0FEF                     	;# 
   711  0000                     	;# 
   712  0001                     	;# 
   713  0002                     	;# 
   714  0003                     	;# 
   715  0004                     	;# 
   716  0005                     	;# 
   717  0006                     	;# 
   718  0007                     	;# 
   719  0008                     	;# 
   720  0009                     	;# 
   721  000A                     	;# 
   722  000B                     	;# 
   723  000C                     	;# 
   724  000D                     	;# 
   725  0011                     	;# 
   726  0012                     	;# 
   727  0013                     	;# 
   728  0014                     	;# 
   729  0015                     	;# 
   730  0016                     	;# 
   731  0016                     	;# 
   732  0017                     	;# 
   733  0018                     	;# 
   734  0019                     	;# 
   735  001A                     	;# 
   736  001B                     	;# 
   737  001C                     	;# 
   738  001E                     	;# 
   739  001F                     	;# 
   740  008C                     	;# 
   741  008D                     	;# 
   742  0091                     	;# 
   743  0092                     	;# 
   744  0093                     	;# 
   745  0094                     	;# 
   746  0095                     	;# 
   747  0096                     	;# 
   748  0097                     	;# 
   749  0098                     	;# 
   750  0099                     	;# 
   751  009A                     	;# 
   752  009B                     	;# 
   753  009B                     	;# 
   754  009C                     	;# 
   755  009D                     	;# 
   756  009E                     	;# 
   757  010C                     	;# 
   758  010D                     	;# 
   759  0111                     	;# 
   760  0112                     	;# 
   761  0113                     	;# 
   762  0114                     	;# 
   763  0115                     	;# 
   764  0116                     	;# 
   765  0117                     	;# 
   766  0118                     	;# 
   767  0119                     	;# 
   768  011A                     	;# 
   769  011B                     	;# 
   770  011D                     	;# 
   771  011E                     	;# 
   772  018C                     	;# 
   773  018D                     	;# 
   774  0191                     	;# 
   775  0191                     	;# 
   776  0192                     	;# 
   777  0193                     	;# 
   778  0193                     	;# 
   779  0193                     	;# 
   780  0194                     	;# 
   781  0195                     	;# 
   782  0196                     	;# 
   783  0199                     	;# 
   784  019A                     	;# 
   785  019B                     	;# 
   786  019B                     	;# 
   787  019B                     	;# 
   788  019B                     	;# 
   789  019C                     	;# 
   790  019C                     	;# 
   791  019D                     	;# 
   792  019E                     	;# 
   793  019F                     	;# 
   794  020C                     	;# 
   795  020D                     	;# 
   796  0211                     	;# 
   797  0211                     	;# 
   798  0212                     	;# 
   799  0212                     	;# 
   800  0213                     	;# 
   801  0213                     	;# 
   802  0214                     	;# 
   803  0214                     	;# 
   804  0215                     	;# 
   805  0215                     	;# 
   806  0215                     	;# 
   807  0216                     	;# 
   808  0216                     	;# 
   809  0217                     	;# 
   810  0217                     	;# 
   811  0219                     	;# 
   812  021A                     	;# 
   813  021B                     	;# 
   814  021C                     	;# 
   815  021D                     	;# 
   816  021E                     	;# 
   817  021F                     	;# 
   818  0291                     	;# 
   819  0291                     	;# 
   820  0292                     	;# 
   821  0293                     	;# 
   822  0294                     	;# 
   823  0295                     	;# 
   824  0295                     	;# 
   825  0296                     	;# 
   826  0298                     	;# 
   827  0298                     	;# 
   828  0299                     	;# 
   829  029A                     	;# 
   830  029B                     	;# 
   831  029C                     	;# 
   832  029C                     	;# 
   833  029D                     	;# 
   834  029E                     	;# 
   835  029E                     	;# 
   836  0311                     	;# 
   837  0311                     	;# 
   838  0312                     	;# 
   839  0313                     	;# 
   840  0318                     	;# 
   841  0318                     	;# 
   842  0319                     	;# 
   843  031A                     	;# 
   844  0394                     	;# 
   845  0395                     	;# 
   846  0396                     	;# 
   847  039A                     	;# 
   848  039C                     	;# 
   849  039D                     	;# 
   850  039E                     	;# 
   851  039F                     	;# 
   852  0415                     	;# 
   853  0416                     	;# 
   854  0417                     	;# 
   855  041C                     	;# 
   856  041D                     	;# 
   857  041E                     	;# 
   858  0FE4                     	;# 
   859  0FE5                     	;# 
   860  0FE6                     	;# 
   861  0FE7                     	;# 
   862  0FE8                     	;# 
   863  0FE9                     	;# 
   864  0FEA                     	;# 
   865  0FEB                     	;# 
   866  0FED                     	;# 
   867  0FEE                     	;# 
   868  0FEF                     	;# 
   869  0000                     	;# 
   870  0001                     	;# 
   871  0002                     	;# 
   872  0003                     	;# 
   873  0004                     	;# 
   874  0005                     	;# 
   875  0006                     	;# 
   876  0007                     	;# 
   877  0008                     	;# 
   878  0009                     	;# 
   879  000A                     	;# 
   880  000B                     	;# 
   881  000C                     	;# 
   882  000D                     	;# 
   883  0011                     	;# 
   884  0012                     	;# 
   885  0013                     	;# 
   886  0014                     	;# 
   887  0015                     	;# 
   888  0016                     	;# 
   889  0016                     	;# 
   890  0017                     	;# 
   891  0018                     	;# 
   892  0019                     	;# 
   893  001A                     	;# 
   894  001B                     	;# 
   895  001C                     	;# 
   896  001E                     	;# 
   897  001F                     	;# 
   898  008C                     	;# 
   899  008D                     	;# 
   900  0091                     	;# 
   901  0092                     	;# 
   902  0093                     	;# 
   903  0094                     	;# 
   904  0095                     	;# 
   905  0096                     	;# 
   906  0097                     	;# 
   907  0098                     	;# 
   908  0099                     	;# 
   909  009A                     	;# 
   910  009B                     	;# 
   911  009B                     	;# 
   912  009C                     	;# 
   913  009D                     	;# 
   914  009E                     	;# 
   915  010C                     	;# 
   916  010D                     	;# 
   917  0111                     	;# 
   918  0112                     	;# 
   919  0113                     	;# 
   920  0114                     	;# 
   921  0115                     	;# 
   922  0116                     	;# 
   923  0117                     	;# 
   924  0118                     	;# 
   925  0119                     	;# 
   926  011A                     	;# 
   927  011B                     	;# 
   928  011D                     	;# 
   929  011E                     	;# 
   930  018C                     	;# 
   931  018D                     	;# 
   932  0191                     	;# 
   933  0191                     	;# 
   934  0192                     	;# 
   935  0193                     	;# 
   936  0193                     	;# 
   937  0193                     	;# 
   938  0194                     	;# 
   939  0195                     	;# 
   940  0196                     	;# 
   941  0199                     	;# 
   942  019A                     	;# 
   943  019B                     	;# 
   944  019B                     	;# 
   945  019B                     	;# 
   946  019B                     	;# 
   947  019C                     	;# 
   948  019C                     	;# 
   949  019D                     	;# 
   950  019E                     	;# 
   951  019F                     	;# 
   952  020C                     	;# 
   953  020D                     	;# 
   954  0211                     	;# 
   955  0211                     	;# 
   956  0212                     	;# 
   957  0212                     	;# 
   958  0213                     	;# 
   959  0213                     	;# 
   960  0214                     	;# 
   961  0214                     	;# 
   962  0215                     	;# 
   963  0215                     	;# 
   964  0215                     	;# 
   965  0216                     	;# 
   966  0216                     	;# 
   967  0217                     	;# 
   968  0217                     	;# 
   969  0219                     	;# 
   970  021A                     	;# 
   971  021B                     	;# 
   972  021C                     	;# 
   973  021D                     	;# 
   974  021E                     	;# 
   975  021F                     	;# 
   976  0291                     	;# 
   977  0291                     	;# 
   978  0292                     	;# 
   979  0293                     	;# 
   980  0294                     	;# 
   981  0295                     	;# 
   982  0295                     	;# 
   983  0296                     	;# 
   984  0298                     	;# 
   985  0298                     	;# 
   986  0299                     	;# 
   987  029A                     	;# 
   988  029B                     	;# 
   989  029C                     	;# 
   990  029C                     	;# 
   991  029D                     	;# 
   992  029E                     	;# 
   993  029E                     	;# 
   994  0311                     	;# 
   995  0311                     	;# 
   996  0312                     	;# 
   997  0313                     	;# 
   998  0318                     	;# 
   999  0318                     	;# 
  1000  0319                     	;# 
  1001  031A                     	;# 
  1002  0394                     	;# 
  1003  0395                     	;# 
  1004  0396                     	;# 
  1005  039A                     	;# 
  1006  039C                     	;# 
  1007  039D                     	;# 
  1008  039E                     	;# 
  1009  039F                     	;# 
  1010  0415                     	;# 
  1011  0416                     	;# 
  1012  0417                     	;# 
  1013  041C                     	;# 
  1014  041D                     	;# 
  1015  041E                     	;# 
  1016  0FE4                     	;# 
  1017  0FE5                     	;# 
  1018  0FE6                     	;# 
  1019  0FE7                     	;# 
  1020  0FE8                     	;# 
  1021  0FE9                     	;# 
  1022  0FEA                     	;# 
  1023  0FEB                     	;# 
  1024  0FED                     	;# 
  1025  0FEE                     	;# 
  1026  0FEF                     	;# 
  1027  0000                     	;# 
  1028  0001                     	;# 
  1029  0002                     	;# 
  1030  0003                     	;# 
  1031  0004                     	;# 
  1032  0005                     	;# 
  1033  0006                     	;# 
  1034  0007                     	;# 
  1035  0008                     	;# 
  1036  0009                     	;# 
  1037  000A                     	;# 
  1038  000B                     	;# 
  1039  000C                     	;# 
  1040  000D                     	;# 
  1041  0011                     	;# 
  1042  0012                     	;# 
  1043  0013                     	;# 
  1044  0014                     	;# 
  1045  0015                     	;# 
  1046  0016                     	;# 
  1047  0016                     	;# 
  1048  0017                     	;# 
  1049  0018                     	;# 
  1050  0019                     	;# 
  1051  001A                     	;# 
  1052  001B                     	;# 
  1053  001C                     	;# 
  1054  001E                     	;# 
  1055  001F                     	;# 
  1056  008C                     	;# 
  1057  008D                     	;# 
  1058  0091                     	;# 
  1059  0092                     	;# 
  1060  0093                     	;# 
  1061  0094                     	;# 
  1062  0095                     	;# 
  1063  0096                     	;# 
  1064  0097                     	;# 
  1065  0098                     	;# 
  1066  0099                     	;# 
  1067  009A                     	;# 
  1068  009B                     	;# 
  1069  009B                     	;# 
  1070  009C                     	;# 
  1071  009D                     	;# 
  1072  009E                     	;# 
  1073  010C                     	;# 
  1074  010D                     	;# 
  1075  0111                     	;# 
  1076  0112                     	;# 
  1077  0113                     	;# 
  1078  0114                     	;# 
  1079  0115                     	;# 
  1080  0116                     	;# 
  1081  0117                     	;# 
  1082  0118                     	;# 
  1083  0119                     	;# 
  1084  011A                     	;# 
  1085  011B                     	;# 
  1086  011D                     	;# 
  1087  011E                     	;# 
  1088  018C                     	;# 
  1089  018D                     	;# 
  1090  0191                     	;# 
  1091  0191                     	;# 
  1092  0192                     	;# 
  1093  0193                     	;# 
  1094  0193                     	;# 
  1095  0193                     	;# 
  1096  0194                     	;# 
  1097  0195                     	;# 
  1098  0196                     	;# 
  1099  0199                     	;# 
  1100  019A                     	;# 
  1101  019B                     	;# 
  1102  019B                     	;# 
  1103  019B                     	;# 
  1104  019B                     	;# 
  1105  019C                     	;# 
  1106  019C                     	;# 
  1107  019D                     	;# 
  1108  019E                     	;# 
  1109  019F                     	;# 
  1110  020C                     	;# 
  1111  020D                     	;# 
  1112  0211                     	;# 
  1113  0211                     	;# 
  1114  0212                     	;# 
  1115  0212                     	;# 
  1116  0213                     	;# 
  1117  0213                     	;# 
  1118  0214                     	;# 
  1119  0214                     	;# 
  1120  0215                     	;# 
  1121  0215                     	;# 
  1122  0215                     	;# 
  1123  0216                     	;# 
  1124  0216                     	;# 
  1125  0217                     	;# 
  1126  0217                     	;# 
  1127  0219                     	;# 
  1128  021A                     	;# 
  1129  021B                     	;# 
  1130  021C                     	;# 
  1131  021D                     	;# 
  1132  021E                     	;# 
  1133  021F                     	;# 
  1134  0291                     	;# 
  1135  0291                     	;# 
  1136  0292                     	;# 
  1137  0293                     	;# 
  1138  0294                     	;# 
  1139  0295                     	;# 
  1140  0295                     	;# 
  1141  0296                     	;# 
  1142  0298                     	;# 
  1143  0298                     	;# 
  1144  0299                     	;# 
  1145  029A                     	;# 
  1146  029B                     	;# 
  1147  029C                     	;# 
  1148  029C                     	;# 
  1149  029D                     	;# 
  1150  029E                     	;# 
  1151  029E                     	;# 
  1152  0311                     	;# 
  1153  0311                     	;# 
  1154  0312                     	;# 
  1155  0313                     	;# 
  1156  0318                     	;# 
  1157  0318                     	;# 
  1158  0319                     	;# 
  1159  031A                     	;# 
  1160  0394                     	;# 
  1161  0395                     	;# 
  1162  0396                     	;# 
  1163  039A                     	;# 
  1164  039C                     	;# 
  1165  039D                     	;# 
  1166  039E                     	;# 
  1167  039F                     	;# 
  1168  0415                     	;# 
  1169  0416                     	;# 
  1170  0417                     	;# 
  1171  041C                     	;# 
  1172  041D                     	;# 
  1173  041E                     	;# 
  1174  0FE4                     	;# 
  1175  0FE5                     	;# 
  1176  0FE6                     	;# 
  1177  0FE7                     	;# 
  1178  0FE8                     	;# 
  1179  0FE9                     	;# 
  1180  0FEA                     	;# 
  1181  0FEB                     	;# 
  1182  0FED                     	;# 
  1183  0FEE                     	;# 
  1184  0FEF                     	;# 
  1185                           
  1186                           	psect	idataBANK0
  1187  01B3                     __pidataBANK0:	
  1188                           
  1189                           ;initializer for _SW3
  1190  01B3  3400               	retlw	0
  1191  01B4  3400               	retlw	0
  1192  01B5  3400               	retlw	0
  1193  01B6  3400               	retlw	0
  1194  01B7  3401               	retlw	1
  1195  01B8  3400               	retlw	0
  1196  01B9  3400               	retlw	0
  1197  01BA  3400               	retlw	0
  1198                           
  1199                           ;initializer for _SW2
  1200  01BB  3400               	retlw	0
  1201  01BC  3400               	retlw	0
  1202  01BD  3400               	retlw	0
  1203  01BE  3400               	retlw	0
  1204  01BF  3401               	retlw	1
  1205  01C0  3400               	retlw	0
  1206  01C1  3400               	retlw	0
  1207  01C2  3400               	retlw	0
  1208                           
  1209                           ;initializer for _SW1
  1210  01C3  3400               	retlw	0
  1211  01C4  3400               	retlw	0
  1212  01C5  3400               	retlw	0
  1213  01C6  3400               	retlw	0
  1214  01C7  3401               	retlw	1
  1215  01C8  3400               	retlw	0
  1216  01C9  3400               	retlw	0
  1217  01CA  3400               	retlw	0
  1218                           
  1219                           	psect	nvCOMMON
  1220  0070                     __pnvCOMMON:	
  1221  0070                     _timer1ReloadVal:	
  1222  0070                     	ds	2
  1223  0072                     _IOCBF1_InterruptHandler:	
  1224  0072                     	ds	2
  1225  0074                     _IOCBF0_InterruptHandler:	
  1226  0074                     	ds	2
  1227                           
  1228                           	psect	nvBANK0
  1229  0038                     __pnvBANK0:	
  1230  0038                     _TMR2_InterruptHandler:	
  1231  0038                     	ds	2
  1232  003A                     _TMR1_InterruptHandler:	
  1233  003A                     	ds	2
  1234  003C                     _IOCBF2_InterruptHandler:	
  1235  003C                     	ds	2
  1236  000D                     _PORTBbits	set	13
  1237  001C                     _T2CONbits	set	28
  1238  001C                     _T2CON	set	28
  1239  001A                     _TMR2	set	26
  1240  001B                     _PR2	set	27
  1241  0019                     _T1GCONbits	set	25
  1242  0018                     _T1CONbits	set	24
  1243  0018                     _T1CON	set	24
  1244  0016                     _TMR1L	set	22
  1245  0017                     _TMR1H	set	23
  1246  0019                     _T1GCON	set	25
  1247  0011                     _PIR1bits	set	17
  1248  000B                     _INTCONbits	set	11
  1249  0091                     _PIE1bits	set	145
  1250  0095                     _OPTION_REGbits	set	149
  1251  008D                     _TRISB	set	141
  1252  008C                     _TRISA	set	140
  1253  0097                     _WDTCON	set	151
  1254  0098                     _OSCTUNE	set	152
  1255  0099                     _OSCCON	set	153
  1256  010C                     _LATAbits	set	268
  1257  011E                     _APFCON1	set	286
  1258  011D                     _APFCON0	set	285
  1259  010D                     _LATB	set	269
  1260  010C                     _LATA	set	268
  1261  0116                     _BORCON	set	278
  1262  018C                     _ANSELA	set	396
  1263  018D                     _ANSELB	set	397
  1264  020C                     _WPUA	set	524
  1265  020D                     _WPUB	set	525
  1266  0394                     _IOCBPbits	set	916
  1267  0395                     _IOCBNbits	set	917
  1268  0396                     _IOCBFbits	set	918
  1269                           
  1270                           ; #config settings
  1271  0000                     
  1272                           	psect	cinit
  1273  0025                     start_initialization:	
  1274  0025                     __initialization:	
  1275                           
  1276                           ; Initialize objects allocated to BANK0
  1277  0025  30B3               	movlw	low __pidataBANK0
  1278  0026  0084               	movwf	4
  1279  0027  3081               	movlw	(high __pidataBANK0)| (0+128)
  1280  0028  0085               	movwf	5
  1281  0029  3020               	movlw	low __pdataBANK0
  1282  002A  0086               	movwf	6
  1283  002B  3000               	movlw	high __pdataBANK0
  1284  002C  0087               	movwf	7
  1285  002D  3018               	movlw	24
  1286  002E  3182  2292         	fcall	init_ram
  1287                           
  1288                           ; Clear objects allocated to COMMON
  1289  0030  01F6               	clrf	__pbssCOMMON& (0+127)
  1290  0031  01F7               	clrf	(__pbssCOMMON+1)& (0+127)
  1291  0032  01F8               	clrf	(__pbssCOMMON+2)& (0+127)
  1292  0033                     end_of_initialization:	
  1293                           ;End of C runtime variable initialization code
  1294                           
  1295  0033                     __end_of__initialization:	
  1296  0033  107E               	bcf	int$flags,0	;clear compiler interrupt flag (level 1)
  1297  0034  0020               	movlb	0
  1298  0035  3182  2A17         	ljmp	_main	;jump to C main() function
  1299                           
  1300                           	psect	bssCOMMON
  1301  0076                     __pbssCOMMON:	
  1302  0076                     Chata@ChatterCount:	
  1303  0076                     	ds	1
  1304  0077                     _Timer10msFlag:	
  1305  0077                     	ds	1
  1306  0078                     _Timer500msFlag:	
  1307  0078                     	ds	1
  1308                           
  1309                           	psect	dataBANK0
  1310  0020                     __pdataBANK0:	
  1311  0020                     _SW3:	
  1312  0020                     	ds	8
  1313  0028                     _SW2:	
  1314  0028                     	ds	8
  1315  0030                     _SW1:	
  1316  0030                     	ds	8
  1317                           
  1318                           	psect	inittext
  1319  0292                     init_ram:	
  1320  0292  00FE               	movwf	126
  1321  0293                     initloop:	
  1322  0293  0012               	moviw fsr0++
  1323  0294  001E               	movwi fsr1++
  1324  0295  0BFE               	decfsz	126,f
  1325  0296  2A93               	goto	initloop
  1326  0297  3400               	retlw	0
  1327                           
  1328                           	psect	cstackCOMMON
  1329  0079                     __pcstackCOMMON:	
  1330  0079                     ?_PIN_MANAGER_Initialize:	
  1331  0079                     ?_OSCILLATOR_Initialize:	
  1332                           ; 1 bytes @ 0x0
  1333                           
  1334  0079                     ?_WDT_Initialize:	
  1335                           ; 1 bytes @ 0x0
  1336                           
  1337  0079                     ?_TMR2_Initialize:	
  1338                           ; 1 bytes @ 0x0
  1339                           
  1340  0079                     ?_TMR1_Initialize:	
  1341                           ; 1 bytes @ 0x0
  1342                           
  1343  0079                     ?_IOCBF0_DefaultInterruptHandler:	
  1344                           ; 1 bytes @ 0x0
  1345                           
  1346  0079                     ??_IOCBF0_DefaultInterruptHandler:	
  1347                           ; 1 bytes @ 0x0
  1348                           
  1349  0079                     ?_IOCBF1_DefaultInterruptHandler:	
  1350                           ; 1 bytes @ 0x0
  1351                           
  1352  0079                     ??_IOCBF1_DefaultInterruptHandler:	
  1353                           ; 1 bytes @ 0x0
  1354                           
  1355  0079                     ?_IOCBF2_DefaultInterruptHandler:	
  1356                           ; 1 bytes @ 0x0
  1357                           
  1358  0079                     ??_IOCBF2_DefaultInterruptHandler:	
  1359                           ; 1 bytes @ 0x0
  1360                           
  1361  0079                     ?_IOCBF0_ISR:	
  1362                           ; 1 bytes @ 0x0
  1363                           
  1364  0079                     ??_IOCBF0_ISR:	
  1365                           ; 1 bytes @ 0x0
  1366                           
  1367  0079                     ?_IOCBF1_ISR:	
  1368                           ; 1 bytes @ 0x0
  1369                           
  1370  0079                     ??_IOCBF1_ISR:	
  1371                           ; 1 bytes @ 0x0
  1372                           
  1373  0079                     ?_IOCBF2_ISR:	
  1374                           ; 1 bytes @ 0x0
  1375                           
  1376  0079                     ??_IOCBF2_ISR:	
  1377                           ; 1 bytes @ 0x0
  1378                           
  1379  0079                     ?_TMR2_ISR:	
  1380                           ; 1 bytes @ 0x0
  1381                           
  1382  0079                     ?_TMR1_ISR:	
  1383                           ; 1 bytes @ 0x0
  1384                           
  1385  0079                     ?_TMR1_DefaultInterruptHandler:	
  1386                           ; 1 bytes @ 0x0
  1387                           
  1388  0079                     ??_TMR1_DefaultInterruptHandler:	
  1389                           ; 1 bytes @ 0x0
  1390                           
  1391  0079                     ?_TMR1_CallBack:	
  1392                           ; 1 bytes @ 0x0
  1393                           
  1394  0079                     ??_TMR1_CallBack:	
  1395                           ; 1 bytes @ 0x0
  1396                           
  1397  0079                     ?_TMR2_DefaultInterruptHandler:	
  1398                           ; 1 bytes @ 0x0
  1399                           
  1400  0079                     ??_TMR2_DefaultInterruptHandler:	
  1401                           ; 1 bytes @ 0x0
  1402                           
  1403  0079                     ?_TMR2_CallBack:	
  1404                           ; 1 bytes @ 0x0
  1405                           
  1406  0079                     ?_InputProcess:	
  1407                           ; 1 bytes @ 0x0
  1408                           
  1409  0079                     ?_Chata:	
  1410                           ; 1 bytes @ 0x0
  1411                           
  1412  0079                     ?_OutputProcess:	
  1413                           ; 1 bytes @ 0x0
  1414                           
  1415  0079                     ?_SYSTEM_Initialize:	
  1416                           ; 1 bytes @ 0x0
  1417                           
  1418  0079                     ?_PIN_MANAGER_IOC:	
  1419                           ; 1 bytes @ 0x0
  1420                           
  1421  0079                     ??_PIN_MANAGER_IOC:	
  1422                           ; 1 bytes @ 0x0
  1423                           
  1424  0079                     ?_INTERRUPT_InterruptManager:	
  1425                           ; 1 bytes @ 0x0
  1426                           
  1427  0079                     ?_TMR1_WriteTimer:	
  1428                           ; 1 bytes @ 0x0
  1429                           
  1430  0079                     ?_main:	
  1431                           ; 1 bytes @ 0x0
  1432                           
  1433  0079                     TMR1_WriteTimer@timerVal:	
  1434                           ; 1 bytes @ 0x0
  1435                           
  1436                           
  1437                           ; 2 bytes @ 0x0
  1438  0079                     	ds	2
  1439  007B                     ??_PIN_MANAGER_Initialize:	
  1440  007B                     ??_OSCILLATOR_Initialize:	
  1441                           ; 1 bytes @ 0x2
  1442                           
  1443  007B                     ??_WDT_Initialize:	
  1444                           ; 1 bytes @ 0x2
  1445                           
  1446  007B                     ??_TMR2_Initialize:	
  1447                           ; 1 bytes @ 0x2
  1448                           
  1449  007B                     ??_TMR1_Initialize:	
  1450                           ; 1 bytes @ 0x2
  1451                           
  1452  007B                     ??_IOCBF0_SetInterruptHandler:	
  1453                           ; 1 bytes @ 0x2
  1454                           
  1455  007B                     ??_IOCBF1_SetInterruptHandler:	
  1456                           ; 1 bytes @ 0x2
  1457                           
  1458  007B                     ??_IOCBF2_SetInterruptHandler:	
  1459                           ; 1 bytes @ 0x2
  1460                           
  1461  007B                     ??_TMR2_ISR:	
  1462                           ; 1 bytes @ 0x2
  1463                           
  1464  007B                     ??_TMR1_ISR:	
  1465                           ; 1 bytes @ 0x2
  1466                           
  1467  007B                     ??_TMR1_SetInterruptHandler:	
  1468                           ; 1 bytes @ 0x2
  1469                           
  1470  007B                     ??_TMR2_SetInterruptHandler:	
  1471                           ; 1 bytes @ 0x2
  1472                           
  1473  007B                     ??_TMR2_CallBack:	
  1474                           ; 1 bytes @ 0x2
  1475                           
  1476  007B                     ??_InputProcess:	
  1477                           ; 1 bytes @ 0x2
  1478                           
  1479  007B                     ??_Chata:	
  1480                           ; 1 bytes @ 0x2
  1481                           
  1482  007B                     ??_OutputProcess:	
  1483                           ; 1 bytes @ 0x2
  1484                           
  1485  007B                     ??_SYSTEM_Initialize:	
  1486                           ; 1 bytes @ 0x2
  1487                           
  1488  007B                     ??_INTERRUPT_InterruptManager:	
  1489                           ; 1 bytes @ 0x2
  1490                           
  1491  007B                     ??_TMR1_WriteTimer:	
  1492                           ; 1 bytes @ 0x2
  1493                           
  1494  007B                     ??_main:	
  1495                           ; 1 bytes @ 0x2
  1496                           
  1497                           
  1498                           	psect	cstackBANK0
  1499  003E                     __pcstackBANK0:	
  1500                           ; 1 bytes @ 0x2
  1501                           
  1502  003E                     ?_IOCBF0_SetInterruptHandler:	
  1503  003E                     ?_IOCBF1_SetInterruptHandler:	
  1504                           ; 1 bytes @ 0x0
  1505                           
  1506  003E                     ?_IOCBF2_SetInterruptHandler:	
  1507                           ; 1 bytes @ 0x0
  1508                           
  1509  003E                     ?_TMR1_SetInterruptHandler:	
  1510                           ; 1 bytes @ 0x0
  1511                           
  1512  003E                     ?_TMR2_SetInterruptHandler:	
  1513                           ; 1 bytes @ 0x0
  1514                           
  1515  003E                     IOCBF0_SetInterruptHandler@InterruptHandler:	
  1516                           ; 1 bytes @ 0x0
  1517                           
  1518  003E                     IOCBF1_SetInterruptHandler@InterruptHandler:	
  1519                           ; 2 bytes @ 0x0
  1520                           
  1521  003E                     IOCBF2_SetInterruptHandler@InterruptHandler:	
  1522                           ; 2 bytes @ 0x0
  1523                           
  1524  003E                     TMR1_SetInterruptHandler@InterruptHandler:	
  1525                           ; 2 bytes @ 0x0
  1526                           
  1527  003E                     TMR2_SetInterruptHandler@InterruptHandler:	
  1528                           ; 2 bytes @ 0x0
  1529                           
  1530                           
  1531                           ; 2 bytes @ 0x0
  1532  003E                     	ds	2
  1533                           
  1534                           	psect	maintext
  1535  0217                     __pmaintext:	
  1536 ;;
  1537 ;;Main: autosize = 0, tempsize = 0, incstack = 0, save=0
  1538 ;;
  1539 ;; *************** function _main *****************
  1540 ;; Defined at:
  1541 ;;		line 88 in file "main.c"
  1542 ;; Parameters:    Size  Location     Type
  1543 ;;		None
  1544 ;; Auto vars:     Size  Location     Type
  1545 ;;		None
  1546 ;; Return value:  Size  Location     Type
  1547 ;;                  1    wreg      void 
  1548 ;; Registers used:
  1549 ;;		wreg, status,2, status,0, pclath, cstack
  1550 ;; Tracked objects:
  1551 ;;		On entry : B1F/0
  1552 ;;		On exit  : 0/0
  1553 ;;		Unchanged: 0/0
  1554 ;; Data sizes:     COMMON   BANK0   BANK1   BANK2   BANK3   BANK4
  1555 ;;      Params:         0       0       0       0       0       0
  1556 ;;      Locals:         0       0       0       0       0       0
  1557 ;;      Temps:          0       0       0       0       0       0
  1558 ;;      Totals:         0       0       0       0       0       0
  1559 ;;Total ram usage:        0 bytes
  1560 ;; Hardware stack levels required when called:    7
  1561 ;; This function calls:
  1562 ;;		_Chata
  1563 ;;		_InputProcess
  1564 ;;		_OutputProcess
  1565 ;;		_SYSTEM_Initialize
  1566 ;; This function is called by:
  1567 ;;		Startup code after reset
  1568 ;; This function uses a non-reentrant model
  1569 ;;
  1570                           
  1571                           
  1572                           ;psect for function _main
  1573  0217                     _main:	
  1574                           
  1575                           ;main.c: 91:     SYSTEM_Initialize();
  1576                           
  1577                           ;incstack = 0
  1578                           ; Regs used in _main: [wreg+status,2+status,0+pclath+cstack]
  1579  0217  3182  2226  3182   	fcall	_SYSTEM_Initialize
  1580                           
  1581                           ;main.c: 97:     (INTCONbits.GIE = 1);
  1582  021A  178B               	bsf	11,7	;volatile
  1583                           
  1584                           ;main.c: 100:     (INTCONbits.PEIE = 1);
  1585  021B  170B               	bsf	11,6	;volatile
  1586  021C                     l349:	
  1587                           ;main.c: 110:     while (1) {
  1588                           
  1589                           
  1590                           ;main.c: 111:         InputProcess();
  1591  021C  3181  2194  3182   	fcall	_InputProcess
  1592                           
  1593                           ;main.c: 112:         Chata();
  1594  021F  3182  22CE  3182   	fcall	_Chata
  1595                           
  1596                           ;main.c: 113:         OutputProcess();
  1597  0222  3182  2207  3182   	fcall	_OutputProcess
  1598  0225  2A1C               	goto	l349
  1599  0226                     __end_of_main:	
  1600                           
  1601                           	psect	text1
  1602  0226                     __ptext1:	
  1603 ;; *************** function _SYSTEM_Initialize *****************
  1604 ;; Defined at:
  1605 ;;		line 50 in file "mcc_generated_files/mcc.c"
  1606 ;; Parameters:    Size  Location     Type
  1607 ;;		None
  1608 ;; Auto vars:     Size  Location     Type
  1609 ;;		None
  1610 ;; Return value:  Size  Location     Type
  1611 ;;                  1    wreg      void 
  1612 ;; Registers used:
  1613 ;;		wreg, status,2, status,0, pclath, cstack
  1614 ;; Tracked objects:
  1615 ;;		On entry : 0/0
  1616 ;;		On exit  : 0/0
  1617 ;;		Unchanged: 0/0
  1618 ;; Data sizes:     COMMON   BANK0   BANK1   BANK2   BANK3   BANK4
  1619 ;;      Params:         0       0       0       0       0       0
  1620 ;;      Locals:         0       0       0       0       0       0
  1621 ;;      Temps:          0       0       0       0       0       0
  1622 ;;      Totals:         0       0       0       0       0       0
  1623 ;;Total ram usage:        0 bytes
  1624 ;; Hardware stack levels used:    1
  1625 ;; Hardware stack levels required when called:    6
  1626 ;; This function calls:
  1627 ;;		_OSCILLATOR_Initialize
  1628 ;;		_PIN_MANAGER_Initialize
  1629 ;;		_TMR1_Initialize
  1630 ;;		_TMR2_Initialize
  1631 ;;		_WDT_Initialize
  1632 ;; This function is called by:
  1633 ;;		_main
  1634 ;; This function uses a non-reentrant model
  1635 ;;
  1636                           
  1637                           
  1638                           ;psect for function _SYSTEM_Initialize
  1639  0226                     _SYSTEM_Initialize:	
  1640                           
  1641                           ;mcc_generated_files/mcc.c: 53:     PIN_MANAGER_Initialize();
  1642                           
  1643                           ;incstack = 0
  1644                           ; Regs used in _SYSTEM_Initialize: [wreg+status,2+status,0+pclath+cstack]
  1645  0226  3181  215C  3182   	fcall	_PIN_MANAGER_Initialize
  1646                           
  1647                           ;mcc_generated_files/mcc.c: 54:     OSCILLATOR_Initialize();
  1648  0229  3182  228B  3182   	fcall	_OSCILLATOR_Initialize
  1649                           
  1650                           ;mcc_generated_files/mcc.c: 55:     WDT_Initialize();
  1651  022C  3182  22BB  3182   	fcall	_WDT_Initialize
  1652                           
  1653                           ;mcc_generated_files/mcc.c: 56:     TMR2_Initialize();
  1654  022F  3181  21E3  3182   	fcall	_TMR2_Initialize
  1655                           
  1656                           ;mcc_generated_files/mcc.c: 57:     TMR1_Initialize();
  1657  0232  3181  21CB         	fcall	_TMR1_Initialize
  1658  0234  0008               	return
  1659  0235                     __end_of_SYSTEM_Initialize:	
  1660                           
  1661                           	psect	text2
  1662  02BB                     __ptext2:	
  1663 ;; *************** function _WDT_Initialize *****************
  1664 ;; Defined at:
  1665 ;;		line 70 in file "mcc_generated_files/mcc.c"
  1666 ;; Parameters:    Size  Location     Type
  1667 ;;		None
  1668 ;; Auto vars:     Size  Location     Type
  1669 ;;		None
  1670 ;; Return value:  Size  Location     Type
  1671 ;;                  1    wreg      void 
  1672 ;; Registers used:
  1673 ;;		wreg
  1674 ;; Tracked objects:
  1675 ;;		On entry : 0/0
  1676 ;;		On exit  : 0/0
  1677 ;;		Unchanged: 0/0
  1678 ;; Data sizes:     COMMON   BANK0   BANK1   BANK2   BANK3   BANK4
  1679 ;;      Params:         0       0       0       0       0       0
  1680 ;;      Locals:         0       0       0       0       0       0
  1681 ;;      Temps:          0       0       0       0       0       0
  1682 ;;      Totals:         0       0       0       0       0       0
  1683 ;;Total ram usage:        0 bytes
  1684 ;; Hardware stack levels used:    1
  1685 ;; Hardware stack levels required when called:    4
  1686 ;; This function calls:
  1687 ;;		Nothing
  1688 ;; This function is called by:
  1689 ;;		_SYSTEM_Initialize
  1690 ;; This function uses a non-reentrant model
  1691 ;;
  1692                           
  1693                           
  1694                           ;psect for function _WDT_Initialize
  1695  02BB                     _WDT_Initialize:	
  1696                           
  1697                           ;mcc_generated_files/mcc.c: 73:     WDTCON = 0x16;
  1698                           
  1699                           ;incstack = 0
  1700                           ; Regs used in _WDT_Initialize: [wreg]
  1701  02BB  3016               	movlw	22
  1702  02BC  0021               	movlb	1	; select bank1
  1703  02BD  0097               	movwf	23	;volatile
  1704  02BE  0008               	return
  1705  02BF                     __end_of_WDT_Initialize:	
  1706                           
  1707                           	psect	text3
  1708  01E3                     __ptext3:	
  1709 ;; *************** function _TMR2_Initialize *****************
  1710 ;; Defined at:
  1711 ;;		line 70 in file "mcc_generated_files/tmr2.c"
  1712 ;; Parameters:    Size  Location     Type
  1713 ;;		None
  1714 ;; Auto vars:     Size  Location     Type
  1715 ;;		None
  1716 ;; Return value:  Size  Location     Type
  1717 ;;                  1    wreg      void 
  1718 ;; Registers used:
  1719 ;;		wreg, status,2, status,0, pclath, cstack
  1720 ;; Tracked objects:
  1721 ;;		On entry : 0/0
  1722 ;;		On exit  : 0/0
  1723 ;;		Unchanged: 0/0
  1724 ;; Data sizes:     COMMON   BANK0   BANK1   BANK2   BANK3   BANK4
  1725 ;;      Params:         0       0       0       0       0       0
  1726 ;;      Locals:         0       0       0       0       0       0
  1727 ;;      Temps:          0       0       0       0       0       0
  1728 ;;      Totals:         0       0       0       0       0       0
  1729 ;;Total ram usage:        0 bytes
  1730 ;; Hardware stack levels used:    1
  1731 ;; Hardware stack levels required when called:    5
  1732 ;; This function calls:
  1733 ;;		_TMR2_SetInterruptHandler
  1734 ;; This function is called by:
  1735 ;;		_SYSTEM_Initialize
  1736 ;; This function uses a non-reentrant model
  1737 ;;
  1738                           
  1739                           
  1740                           ;psect for function _TMR2_Initialize
  1741  01E3                     _TMR2_Initialize:	
  1742                           
  1743                           ;mcc_generated_files/tmr2.c: 74:     PR2 = 0xF9;
  1744                           
  1745                           ;incstack = 0
  1746                           ; Regs used in _TMR2_Initialize: [wreg+status,2+status,0+pclath+cstack]
  1747  01E3  30F9               	movlw	249
  1748  01E4  0020               	movlb	0	; select bank0
  1749  01E5  009B               	movwf	27	;volatile
  1750                           
  1751                           ;mcc_generated_files/tmr2.c: 77:     TMR2 = 0x00;
  1752  01E6  019A               	clrf	26	;volatile
  1753                           
  1754                           ;mcc_generated_files/tmr2.c: 80:     PIR1bits.TMR2IF = 0;
  1755  01E7  1091               	bcf	17,1	;volatile
  1756                           
  1757                           ;mcc_generated_files/tmr2.c: 83:     PIE1bits.TMR2IE = 1;
  1758  01E8  0021               	movlb	1	; select bank1
  1759  01E9  1491               	bsf	17,1	;volatile
  1760                           
  1761                           ;mcc_generated_files/tmr2.c: 86:     TMR2_SetInterruptHandler(TMR2_DefaultInterruptHandl
      +                          er);
  1762  01EA  3037               	movlw	low _TMR2_DefaultInterruptHandler
  1763  01EB  0020               	movlb	0	; select bank0
  1764  01EC  00BE               	movwf	TMR2_SetInterruptHandler@InterruptHandler
  1765  01ED  3000               	movlw	high _TMR2_DefaultInterruptHandler
  1766  01EE  00BF               	movwf	TMR2_SetInterruptHandler@InterruptHandler+1
  1767  01EF  3182  2298         	fcall	_TMR2_SetInterruptHandler
  1768                           
  1769                           ;mcc_generated_files/tmr2.c: 89:     T2CON = 0x24;
  1770  01F1  3024               	movlw	36
  1771  01F2  0020               	movlb	0	; select bank0
  1772  01F3  009C               	movwf	28	;volatile
  1773  01F4  0008               	return
  1774  01F5                     __end_of_TMR2_Initialize:	
  1775                           
  1776                           	psect	text4
  1777  0298                     __ptext4:	
  1778 ;; *************** function _TMR2_SetInterruptHandler *****************
  1779 ;; Defined at:
  1780 ;;		line 137 in file "mcc_generated_files/tmr2.c"
  1781 ;; Parameters:    Size  Location     Type
  1782 ;;  InterruptHan    2    0[BANK0 ] PTR FTN()void 
  1783 ;;		 -> TMR2_DefaultInterruptHandler(1), 
  1784 ;; Auto vars:     Size  Location     Type
  1785 ;;		None
  1786 ;; Return value:  Size  Location     Type
  1787 ;;                  1    wreg      void 
  1788 ;; Registers used:
  1789 ;;		wreg
  1790 ;; Tracked objects:
  1791 ;;		On entry : 0/0
  1792 ;;		On exit  : 0/0
  1793 ;;		Unchanged: 0/0
  1794 ;; Data sizes:     COMMON   BANK0   BANK1   BANK2   BANK3   BANK4
  1795 ;;      Params:         0       2       0       0       0       0
  1796 ;;      Locals:         0       0       0       0       0       0
  1797 ;;      Temps:          0       0       0       0       0       0
  1798 ;;      Totals:         0       2       0       0       0       0
  1799 ;;Total ram usage:        2 bytes
  1800 ;; Hardware stack levels used:    1
  1801 ;; Hardware stack levels required when called:    4
  1802 ;; This function calls:
  1803 ;;		Nothing
  1804 ;; This function is called by:
  1805 ;;		_TMR2_Initialize
  1806 ;; This function uses a non-reentrant model
  1807 ;;
  1808                           
  1809                           
  1810                           ;psect for function _TMR2_SetInterruptHandler
  1811  0298                     _TMR2_SetInterruptHandler:	
  1812                           
  1813                           ;mcc_generated_files/tmr2.c: 138:     TMR2_InterruptHandler = InterruptHandler;
  1814                           
  1815                           ;incstack = 0
  1816                           ; Regs used in _TMR2_SetInterruptHandler: [wreg]
  1817  0298  0020               	movlb	0	; select bank0
  1818  0299  083F               	movf	TMR2_SetInterruptHandler@InterruptHandler+1,w
  1819  029A  00B9               	movwf	_TMR2_InterruptHandler+1
  1820  029B  083E               	movf	TMR2_SetInterruptHandler@InterruptHandler,w
  1821  029C  00B8               	movwf	_TMR2_InterruptHandler
  1822  029D  0008               	return
  1823  029E                     __end_of_TMR2_SetInterruptHandler:	
  1824                           
  1825                           	psect	text5
  1826  01CB                     __ptext5:	
  1827 ;; *************** function _TMR1_Initialize *****************
  1828 ;; Defined at:
  1829 ;;		line 66 in file "mcc_generated_files/tmr1.c"
  1830 ;; Parameters:    Size  Location     Type
  1831 ;;		None
  1832 ;; Auto vars:     Size  Location     Type
  1833 ;;		None
  1834 ;; Return value:  Size  Location     Type
  1835 ;;                  1    wreg      void 
  1836 ;; Registers used:
  1837 ;;		wreg, status,2, status,0, pclath, cstack
  1838 ;; Tracked objects:
  1839 ;;		On entry : 0/0
  1840 ;;		On exit  : 0/0
  1841 ;;		Unchanged: 0/0
  1842 ;; Data sizes:     COMMON   BANK0   BANK1   BANK2   BANK3   BANK4
  1843 ;;      Params:         0       0       0       0       0       0
  1844 ;;      Locals:         0       0       0       0       0       0
  1845 ;;      Temps:          0       0       0       0       0       0
  1846 ;;      Totals:         0       0       0       0       0       0
  1847 ;;Total ram usage:        0 bytes
  1848 ;; Hardware stack levels used:    1
  1849 ;; Hardware stack levels required when called:    5
  1850 ;; This function calls:
  1851 ;;		_TMR1_SetInterruptHandler
  1852 ;; This function is called by:
  1853 ;;		_SYSTEM_Initialize
  1854 ;; This function uses a non-reentrant model
  1855 ;;
  1856                           
  1857                           
  1858                           ;psect for function _TMR1_Initialize
  1859  01CB                     _TMR1_Initialize:	
  1860                           
  1861                           ;mcc_generated_files/tmr1.c: 70:     T1GCON = 0x00;
  1862                           
  1863                           ;incstack = 0
  1864                           ; Regs used in _TMR1_Initialize: [wreg+status,2+status,0+pclath+cstack]
  1865  01CB  0020               	movlb	0	; select bank0
  1866  01CC  0199               	clrf	25	;volatile
  1867                           
  1868                           ;mcc_generated_files/tmr1.c: 73:     TMR1H = 0x0B;
  1869  01CD  300B               	movlw	11
  1870  01CE  0097               	movwf	23	;volatile
  1871                           
  1872                           ;mcc_generated_files/tmr1.c: 76:     TMR1L = 0xDC;
  1873  01CF  30DC               	movlw	220
  1874  01D0  0096               	movwf	22	;volatile
  1875                           
  1876                           ;mcc_generated_files/tmr1.c: 79:     PIR1bits.TMR1IF = 0;
  1877  01D1  1011               	bcf	17,0	;volatile
  1878                           
  1879                           ;mcc_generated_files/tmr1.c: 82:     timer1ReloadVal = (uint16_t) ((TMR1H << 8) | TMR1L)
      +                          ;
  1880  01D2  0817               	movf	23,w	;volatile
  1881  01D3  00F1               	movwf	_timer1ReloadVal+1	;volatile
  1882  01D4  0816               	movf	22,w	;volatile
  1883  01D5  00F0               	movwf	_timer1ReloadVal	;volatile
  1884                           
  1885                           ;mcc_generated_files/tmr1.c: 85:     PIE1bits.TMR1IE = 1;
  1886  01D6  0021               	movlb	1	; select bank1
  1887  01D7  1411               	bsf	17,0	;volatile
  1888                           
  1889                           ;mcc_generated_files/tmr1.c: 88:     TMR1_SetInterruptHandler(TMR1_DefaultInterruptHandl
      +                          er);
  1890  01D8  30CB               	movlw	low _TMR1_DefaultInterruptHandler
  1891  01D9  0020               	movlb	0	; select bank0
  1892  01DA  00BE               	movwf	TMR1_SetInterruptHandler@InterruptHandler
  1893  01DB  3002               	movlw	high _TMR1_DefaultInterruptHandler
  1894  01DC  00BF               	movwf	TMR1_SetInterruptHandler@InterruptHandler+1
  1895  01DD  3182  229E         	fcall	_TMR1_SetInterruptHandler
  1896                           
  1897                           ;mcc_generated_files/tmr1.c: 91:     T1CON = 0x01;
  1898  01DF  3001               	movlw	1
  1899  01E0  0020               	movlb	0	; select bank0
  1900  01E1  0098               	movwf	24	;volatile
  1901  01E2  0008               	return
  1902  01E3                     __end_of_TMR1_Initialize:	
  1903                           
  1904                           	psect	text6
  1905  029E                     __ptext6:	
  1906 ;; *************** function _TMR1_SetInterruptHandler *****************
  1907 ;; Defined at:
  1908 ;;		line 166 in file "mcc_generated_files/tmr1.c"
  1909 ;; Parameters:    Size  Location     Type
  1910 ;;  InterruptHan    2    0[BANK0 ] PTR FTN()void 
  1911 ;;		 -> TMR1_DefaultInterruptHandler(1), 
  1912 ;; Auto vars:     Size  Location     Type
  1913 ;;		None
  1914 ;; Return value:  Size  Location     Type
  1915 ;;                  1    wreg      void 
  1916 ;; Registers used:
  1917 ;;		wreg
  1918 ;; Tracked objects:
  1919 ;;		On entry : 0/0
  1920 ;;		On exit  : 0/0
  1921 ;;		Unchanged: 0/0
  1922 ;; Data sizes:     COMMON   BANK0   BANK1   BANK2   BANK3   BANK4
  1923 ;;      Params:         0       2       0       0       0       0
  1924 ;;      Locals:         0       0       0       0       0       0
  1925 ;;      Temps:          0       0       0       0       0       0
  1926 ;;      Totals:         0       2       0       0       0       0
  1927 ;;Total ram usage:        2 bytes
  1928 ;; Hardware stack levels used:    1
  1929 ;; Hardware stack levels required when called:    4
  1930 ;; This function calls:
  1931 ;;		Nothing
  1932 ;; This function is called by:
  1933 ;;		_TMR1_Initialize
  1934 ;; This function uses a non-reentrant model
  1935 ;;
  1936                           
  1937                           
  1938                           ;psect for function _TMR1_SetInterruptHandler
  1939  029E                     _TMR1_SetInterruptHandler:	
  1940                           
  1941                           ;mcc_generated_files/tmr1.c: 167:     TMR1_InterruptHandler = InterruptHandler;
  1942                           
  1943                           ;incstack = 0
  1944                           ; Regs used in _TMR1_SetInterruptHandler: [wreg]
  1945  029E  0020               	movlb	0	; select bank0
  1946  029F  083F               	movf	TMR1_SetInterruptHandler@InterruptHandler+1,w
  1947  02A0  00BB               	movwf	_TMR1_InterruptHandler+1
  1948  02A1  083E               	movf	TMR1_SetInterruptHandler@InterruptHandler,w
  1949  02A2  00BA               	movwf	_TMR1_InterruptHandler
  1950  02A3  0008               	return
  1951  02A4                     __end_of_TMR1_SetInterruptHandler:	
  1952                           
  1953                           	psect	text7
  1954  015C                     __ptext7:	
  1955 ;; *************** function _PIN_MANAGER_Initialize *****************
  1956 ;; Defined at:
  1957 ;;		line 60 in file "mcc_generated_files/pin_manager.c"
  1958 ;; Parameters:    Size  Location     Type
  1959 ;;		None
  1960 ;; Auto vars:     Size  Location     Type
  1961 ;;		None
  1962 ;; Return value:  Size  Location     Type
  1963 ;;                  1    wreg      void 
  1964 ;; Registers used:
  1965 ;;		wreg, status,2, status,0, pclath, cstack
  1966 ;; Tracked objects:
  1967 ;;		On entry : 0/0
  1968 ;;		On exit  : 0/0
  1969 ;;		Unchanged: 0/0
  1970 ;; Data sizes:     COMMON   BANK0   BANK1   BANK2   BANK3   BANK4
  1971 ;;      Params:         0       0       0       0       0       0
  1972 ;;      Locals:         0       0       0       0       0       0
  1973 ;;      Temps:          0       0       0       0       0       0
  1974 ;;      Totals:         0       0       0       0       0       0
  1975 ;;Total ram usage:        0 bytes
  1976 ;; Hardware stack levels used:    1
  1977 ;; Hardware stack levels required when called:    5
  1978 ;; This function calls:
  1979 ;;		_IOCBF0_SetInterruptHandler
  1980 ;;		_IOCBF1_SetInterruptHandler
  1981 ;;		_IOCBF2_SetInterruptHandler
  1982 ;; This function is called by:
  1983 ;;		_SYSTEM_Initialize
  1984 ;; This function uses a non-reentrant model
  1985 ;;
  1986                           
  1987                           
  1988                           ;psect for function _PIN_MANAGER_Initialize
  1989  015C                     _PIN_MANAGER_Initialize:	
  1990                           
  1991                           ;mcc_generated_files/pin_manager.c: 64:     LATA = 0xDF;
  1992                           
  1993                           ;incstack = 0
  1994                           ; Regs used in _PIN_MANAGER_Initialize: [wreg+status,2+status,0+pclath+cstack]
  1995  015C  30DF               	movlw	223
  1996  015D  0022               	movlb	2	; select bank2
  1997  015E  008C               	movwf	12	;volatile
  1998                           
  1999                           ;mcc_generated_files/pin_manager.c: 65:     LATB = 0xFF;
  2000  015F  30FF               	movlw	255
  2001  0160  008D               	movwf	13	;volatile
  2002                           
  2003                           ;mcc_generated_files/pin_manager.c: 70:     TRISA = 0x20;
  2004  0161  3020               	movlw	32
  2005  0162  0021               	movlb	1	; select bank1
  2006  0163  008C               	movwf	12	;volatile
  2007                           
  2008                           ;mcc_generated_files/pin_manager.c: 71:     TRISB = 0x07;
  2009  0164  3007               	movlw	7
  2010  0165  008D               	movwf	13	;volatile
  2011                           
  2012                           ;mcc_generated_files/pin_manager.c: 76:     ANSELB = 0x00;
  2013  0166  0023               	movlb	3	; select bank3
  2014  0167  018D               	clrf	13	;volatile
  2015                           
  2016                           ;mcc_generated_files/pin_manager.c: 77:     ANSELA = 0x00;
  2017  0168  018C               	clrf	12	;volatile
  2018                           
  2019                           ;mcc_generated_files/pin_manager.c: 82:     WPUB = 0x00;
  2020  0169  0024               	movlb	4	; select bank4
  2021  016A  018D               	clrf	13	;volatile
  2022                           
  2023                           ;mcc_generated_files/pin_manager.c: 83:     WPUA = 0x00;
  2024  016B  018C               	clrf	12	;volatile
  2025                           
  2026                           ;mcc_generated_files/pin_manager.c: 84:     OPTION_REGbits.nWPUEN = 1;
  2027  016C  0021               	movlb	1	; select bank1
  2028  016D  1795               	bsf	21,7	;volatile
  2029                           
  2030                           ;mcc_generated_files/pin_manager.c: 90:     APFCON0 = 0x00;
  2031  016E  0022               	movlb	2	; select bank2
  2032  016F  019D               	clrf	29	;volatile
  2033                           
  2034                           ;mcc_generated_files/pin_manager.c: 91:     APFCON1 = 0x00;
  2035  0170  019E               	clrf	30	;volatile
  2036                           
  2037                           ;mcc_generated_files/pin_manager.c: 97:     IOCBFbits.IOCBF0 = 0;
  2038  0171  0027               	movlb	7	; select bank7
  2039  0172  1016               	bcf	22,0	;volatile
  2040                           
  2041                           ;mcc_generated_files/pin_manager.c: 99:     IOCBFbits.IOCBF1 = 0;
  2042  0173  1096               	bcf	22,1	;volatile
  2043                           
  2044                           ;mcc_generated_files/pin_manager.c: 101:     IOCBFbits.IOCBF2 = 0;
  2045  0174  1116               	bcf	22,2	;volatile
  2046                           
  2047                           ;mcc_generated_files/pin_manager.c: 103:     IOCBNbits.IOCBN0 = 1;
  2048  0175  1415               	bsf	21,0	;volatile
  2049                           
  2050                           ;mcc_generated_files/pin_manager.c: 105:     IOCBNbits.IOCBN1 = 1;
  2051  0176  1495               	bsf	21,1	;volatile
  2052                           
  2053                           ;mcc_generated_files/pin_manager.c: 107:     IOCBNbits.IOCBN2 = 1;
  2054  0177  1515               	bsf	21,2	;volatile
  2055                           
  2056                           ;mcc_generated_files/pin_manager.c: 109:     IOCBPbits.IOCBP0 = 0;
  2057  0178  1014               	bcf	20,0	;volatile
  2058                           
  2059                           ;mcc_generated_files/pin_manager.c: 111:     IOCBPbits.IOCBP1 = 0;
  2060  0179  1094               	bcf	20,1	;volatile
  2061                           
  2062                           ;mcc_generated_files/pin_manager.c: 113:     IOCBPbits.IOCBP2 = 0;
  2063  017A  1114               	bcf	20,2	;volatile
  2064                           
  2065                           ;mcc_generated_files/pin_manager.c: 118:     IOCBF0_SetInterruptHandler(IOCBF0_DefaultIn
      +                          terruptHandler);
  2066  017B  30C7               	movlw	low _IOCBF0_DefaultInterruptHandler
  2067  017C  0020               	movlb	0	; select bank0
  2068  017D  00BE               	movwf	IOCBF0_SetInterruptHandler@InterruptHandler
  2069  017E  3002               	movlw	high _IOCBF0_DefaultInterruptHandler
  2070  017F  00BF               	movwf	IOCBF0_SetInterruptHandler@InterruptHandler+1
  2071  0180  3182  22B0  3181   	fcall	_IOCBF0_SetInterruptHandler
  2072                           
  2073                           ;mcc_generated_files/pin_manager.c: 119:     IOCBF1_SetInterruptHandler(IOCBF1_DefaultIn
      +                          terruptHandler);
  2074  0183  30C3               	movlw	low _IOCBF1_DefaultInterruptHandler
  2075  0184  0020               	movlb	0	; select bank0
  2076  0185  00BE               	movwf	IOCBF1_SetInterruptHandler@InterruptHandler
  2077  0186  3002               	movlw	high _IOCBF1_DefaultInterruptHandler
  2078  0187  00BF               	movwf	IOCBF1_SetInterruptHandler@InterruptHandler+1
  2079  0188  3182  22AA  3181   	fcall	_IOCBF1_SetInterruptHandler
  2080                           
  2081                           ;mcc_generated_files/pin_manager.c: 120:     IOCBF2_SetInterruptHandler(IOCBF2_DefaultIn
      +                          terruptHandler);
  2082  018B  30BF               	movlw	low _IOCBF2_DefaultInterruptHandler
  2083  018C  0020               	movlb	0	; select bank0
  2084  018D  00BE               	movwf	IOCBF2_SetInterruptHandler@InterruptHandler
  2085  018E  3002               	movlw	high _IOCBF2_DefaultInterruptHandler
  2086  018F  00BF               	movwf	IOCBF2_SetInterruptHandler@InterruptHandler+1
  2087  0190  3182  22A4         	fcall	_IOCBF2_SetInterruptHandler
  2088                           
  2089                           ;mcc_generated_files/pin_manager.c: 123:     INTCONbits.IOCIE = 1;
  2090  0192  158B               	bsf	11,3	;volatile
  2091  0193  0008               	return
  2092  0194                     __end_of_PIN_MANAGER_Initialize:	
  2093                           
  2094                           	psect	text8
  2095  02A4                     __ptext8:	
  2096 ;; *************** function _IOCBF2_SetInterruptHandler *****************
  2097 ;; Defined at:
  2098 ;;		line 227 in file "mcc_generated_files/pin_manager.c"
  2099 ;; Parameters:    Size  Location     Type
  2100 ;;  InterruptHan    2    0[BANK0 ] PTR FTN()void 
  2101 ;;		 -> IOCBF2_DefaultInterruptHandler(1), 
  2102 ;; Auto vars:     Size  Location     Type
  2103 ;;		None
  2104 ;; Return value:  Size  Location     Type
  2105 ;;                  1    wreg      void 
  2106 ;; Registers used:
  2107 ;;		wreg
  2108 ;; Tracked objects:
  2109 ;;		On entry : 0/0
  2110 ;;		On exit  : 0/0
  2111 ;;		Unchanged: 0/0
  2112 ;; Data sizes:     COMMON   BANK0   BANK1   BANK2   BANK3   BANK4
  2113 ;;      Params:         0       2       0       0       0       0
  2114 ;;      Locals:         0       0       0       0       0       0
  2115 ;;      Temps:          0       0       0       0       0       0
  2116 ;;      Totals:         0       2       0       0       0       0
  2117 ;;Total ram usage:        2 bytes
  2118 ;; Hardware stack levels used:    1
  2119 ;; Hardware stack levels required when called:    4
  2120 ;; This function calls:
  2121 ;;		Nothing
  2122 ;; This function is called by:
  2123 ;;		_PIN_MANAGER_Initialize
  2124 ;; This function uses a non-reentrant model
  2125 ;;
  2126                           
  2127                           
  2128                           ;psect for function _IOCBF2_SetInterruptHandler
  2129  02A4                     _IOCBF2_SetInterruptHandler:	
  2130                           
  2131                           ;mcc_generated_files/pin_manager.c: 228:     IOCBF2_InterruptHandler = InterruptHandler;
  2132                           
  2133                           ;incstack = 0
  2134                           ; Regs used in _IOCBF2_SetInterruptHandler: [wreg]
  2135  02A4  0020               	movlb	0	; select bank0
  2136  02A5  083F               	movf	IOCBF2_SetInterruptHandler@InterruptHandler+1,w
  2137  02A6  00BD               	movwf	_IOCBF2_InterruptHandler+1
  2138  02A7  083E               	movf	IOCBF2_SetInterruptHandler@InterruptHandler,w
  2139  02A8  00BC               	movwf	_IOCBF2_InterruptHandler
  2140  02A9  0008               	return
  2141  02AA                     __end_of_IOCBF2_SetInterruptHandler:	
  2142                           
  2143                           	psect	text9
  2144  02AA                     __ptext9:	
  2145 ;; *************** function _IOCBF1_SetInterruptHandler *****************
  2146 ;; Defined at:
  2147 ;;		line 193 in file "mcc_generated_files/pin_manager.c"
  2148 ;; Parameters:    Size  Location     Type
  2149 ;;  InterruptHan    2    0[BANK0 ] PTR FTN()void 
  2150 ;;		 -> IOCBF1_DefaultInterruptHandler(1), 
  2151 ;; Auto vars:     Size  Location     Type
  2152 ;;		None
  2153 ;; Return value:  Size  Location     Type
  2154 ;;                  1    wreg      void 
  2155 ;; Registers used:
  2156 ;;		wreg
  2157 ;; Tracked objects:
  2158 ;;		On entry : 0/0
  2159 ;;		On exit  : 0/0
  2160 ;;		Unchanged: 0/0
  2161 ;; Data sizes:     COMMON   BANK0   BANK1   BANK2   BANK3   BANK4
  2162 ;;      Params:         0       2       0       0       0       0
  2163 ;;      Locals:         0       0       0       0       0       0
  2164 ;;      Temps:          0       0       0       0       0       0
  2165 ;;      Totals:         0       2       0       0       0       0
  2166 ;;Total ram usage:        2 bytes
  2167 ;; Hardware stack levels used:    1
  2168 ;; Hardware stack levels required when called:    4
  2169 ;; This function calls:
  2170 ;;		Nothing
  2171 ;; This function is called by:
  2172 ;;		_PIN_MANAGER_Initialize
  2173 ;; This function uses a non-reentrant model
  2174 ;;
  2175                           
  2176                           
  2177                           ;psect for function _IOCBF1_SetInterruptHandler
  2178  02AA                     _IOCBF1_SetInterruptHandler:	
  2179                           
  2180                           ;mcc_generated_files/pin_manager.c: 194:     IOCBF1_InterruptHandler = InterruptHandler;
  2181                           
  2182                           ;incstack = 0
  2183                           ; Regs used in _IOCBF1_SetInterruptHandler: [wreg]
  2184  02AA  0020               	movlb	0	; select bank0
  2185  02AB  083F               	movf	IOCBF1_SetInterruptHandler@InterruptHandler+1,w
  2186  02AC  00F3               	movwf	_IOCBF1_InterruptHandler+1
  2187  02AD  083E               	movf	IOCBF1_SetInterruptHandler@InterruptHandler,w
  2188  02AE  00F2               	movwf	_IOCBF1_InterruptHandler
  2189  02AF  0008               	return
  2190  02B0                     __end_of_IOCBF1_SetInterruptHandler:	
  2191                           
  2192                           	psect	text10
  2193  02B0                     __ptext10:	
  2194 ;; *************** function _IOCBF0_SetInterruptHandler *****************
  2195 ;; Defined at:
  2196 ;;		line 159 in file "mcc_generated_files/pin_manager.c"
  2197 ;; Parameters:    Size  Location     Type
  2198 ;;  InterruptHan    2    0[BANK0 ] PTR FTN()void 
  2199 ;;		 -> IOCBF0_DefaultInterruptHandler(1), 
  2200 ;; Auto vars:     Size  Location     Type
  2201 ;;		None
  2202 ;; Return value:  Size  Location     Type
  2203 ;;                  1    wreg      void 
  2204 ;; Registers used:
  2205 ;;		wreg
  2206 ;; Tracked objects:
  2207 ;;		On entry : 0/0
  2208 ;;		On exit  : 0/0
  2209 ;;		Unchanged: 0/0
  2210 ;; Data sizes:     COMMON   BANK0   BANK1   BANK2   BANK3   BANK4
  2211 ;;      Params:         0       2       0       0       0       0
  2212 ;;      Locals:         0       0       0       0       0       0
  2213 ;;      Temps:          0       0       0       0       0       0
  2214 ;;      Totals:         0       2       0       0       0       0
  2215 ;;Total ram usage:        2 bytes
  2216 ;; Hardware stack levels used:    1
  2217 ;; Hardware stack levels required when called:    4
  2218 ;; This function calls:
  2219 ;;		Nothing
  2220 ;; This function is called by:
  2221 ;;		_PIN_MANAGER_Initialize
  2222 ;; This function uses a non-reentrant model
  2223 ;;
  2224                           
  2225                           
  2226                           ;psect for function _IOCBF0_SetInterruptHandler
  2227  02B0                     _IOCBF0_SetInterruptHandler:	
  2228                           
  2229                           ;mcc_generated_files/pin_manager.c: 160:     IOCBF0_InterruptHandler = InterruptHandler;
  2230                           
  2231                           ;incstack = 0
  2232                           ; Regs used in _IOCBF0_SetInterruptHandler: [wreg]
  2233  02B0  0020               	movlb	0	; select bank0
  2234  02B1  083F               	movf	IOCBF0_SetInterruptHandler@InterruptHandler+1,w
  2235  02B2  00F5               	movwf	_IOCBF0_InterruptHandler+1
  2236  02B3  083E               	movf	IOCBF0_SetInterruptHandler@InterruptHandler,w
  2237  02B4  00F4               	movwf	_IOCBF0_InterruptHandler
  2238  02B5  0008               	return
  2239  02B6                     __end_of_IOCBF0_SetInterruptHandler:	
  2240                           
  2241                           	psect	text11
  2242  028B                     __ptext11:	
  2243 ;; *************** function _OSCILLATOR_Initialize *****************
  2244 ;; Defined at:
  2245 ;;		line 60 in file "mcc_generated_files/mcc.c"
  2246 ;; Parameters:    Size  Location     Type
  2247 ;;		None
  2248 ;; Auto vars:     Size  Location     Type
  2249 ;;		None
  2250 ;; Return value:  Size  Location     Type
  2251 ;;                  1    wreg      void 
  2252 ;; Registers used:
  2253 ;;		wreg, status,2
  2254 ;; Tracked objects:
  2255 ;;		On entry : 0/0
  2256 ;;		On exit  : 0/0
  2257 ;;		Unchanged: 0/0
  2258 ;; Data sizes:     COMMON   BANK0   BANK1   BANK2   BANK3   BANK4
  2259 ;;      Params:         0       0       0       0       0       0
  2260 ;;      Locals:         0       0       0       0       0       0
  2261 ;;      Temps:          0       0       0       0       0       0
  2262 ;;      Totals:         0       0       0       0       0       0
  2263 ;;Total ram usage:        0 bytes
  2264 ;; Hardware stack levels used:    1
  2265 ;; Hardware stack levels required when called:    4
  2266 ;; This function calls:
  2267 ;;		Nothing
  2268 ;; This function is called by:
  2269 ;;		_SYSTEM_Initialize
  2270 ;; This function uses a non-reentrant model
  2271 ;;
  2272                           
  2273                           
  2274                           ;psect for function _OSCILLATOR_Initialize
  2275  028B                     _OSCILLATOR_Initialize:	
  2276                           
  2277                           ;mcc_generated_files/mcc.c: 63:     OSCCON = 0x38;
  2278                           
  2279                           ;incstack = 0
  2280                           ; Regs used in _OSCILLATOR_Initialize: [wreg+status,2]
  2281  028B  3038               	movlw	56
  2282  028C  0021               	movlb	1	; select bank1
  2283  028D  0099               	movwf	25	;volatile
  2284                           
  2285                           ;mcc_generated_files/mcc.c: 65:     OSCTUNE = 0x00;
  2286  028E  0198               	clrf	24	;volatile
  2287                           
  2288                           ;mcc_generated_files/mcc.c: 67:     BORCON = 0x00;
  2289  028F  0022               	movlb	2	; select bank2
  2290  0290  0196               	clrf	22	;volatile
  2291  0291  0008               	return
  2292  0292                     __end_of_OSCILLATOR_Initialize:	
  2293                           
  2294                           	psect	text12
  2295  0207                     __ptext12:	
  2296 ;; *************** function _OutputProcess *****************
  2297 ;; Defined at:
  2298 ;;		line 147 in file "main.c"
  2299 ;; Parameters:    Size  Location     Type
  2300 ;;		None
  2301 ;; Auto vars:     Size  Location     Type
  2302 ;;		None
  2303 ;; Return value:  Size  Location     Type
  2304 ;;                  1    wreg      void 
  2305 ;; Registers used:
  2306 ;;		wreg, status,2, status,0
  2307 ;; Tracked objects:
  2308 ;;		On entry : 0/0
  2309 ;;		On exit  : 0/0
  2310 ;;		Unchanged: 0/0
  2311 ;; Data sizes:     COMMON   BANK0   BANK1   BANK2   BANK3   BANK4
  2312 ;;      Params:         0       0       0       0       0       0
  2313 ;;      Locals:         0       0       0       0       0       0
  2314 ;;      Temps:          0       0       0       0       0       0
  2315 ;;      Totals:         0       0       0       0       0       0
  2316 ;;Total ram usage:        0 bytes
  2317 ;; Hardware stack levels used:    1
  2318 ;; Hardware stack levels required when called:    4
  2319 ;; This function calls:
  2320 ;;		Nothing
  2321 ;; This function is called by:
  2322 ;;		_main
  2323 ;; This function uses a non-reentrant model
  2324 ;;
  2325                           
  2326                           
  2327                           ;psect for function _OutputProcess
  2328  0207                     _OutputProcess:	
  2329                           
  2330                           ;main.c: 148:     if (Timer500msFlag == 1) {
  2331                           
  2332                           ;incstack = 0
  2333                           ; Regs used in _OutputProcess: [wreg+status,2+status,0]
  2334  0207  0378               	decf	_Timer500msFlag,w
  2335  0208  1D03               	btfss	3,2
  2336  0209  0008               	return
  2337                           
  2338                           ;main.c: 149:         Timer500msFlag = 0;
  2339  020A  01F8               	clrf	_Timer500msFlag
  2340  020B  1003               	clrc
  2341  020C  0022               	movlb	2	; select bank2
  2342  020D  1D8C               	btfss	12,3	;volatile
  2343  020E  1403               	setc
  2344  020F  1C03               	btfss	3,0
  2345  0210  2A14               	goto	u700
  2346  0211  0022               	movlb	2	; select bank2
  2347  0212  158C               	bsf	12,3	;volatile
  2348  0213  0008               	return
  2349  0214                     u700:	
  2350  0214  0022               	movlb	2	; select bank2
  2351  0215  118C               	bcf	12,3	;volatile
  2352  0216  0008               	return
  2353  0217                     __end_of_OutputProcess:	
  2354                           
  2355                           	psect	text13
  2356  0194                     __ptext13:	
  2357 ;; *************** function _InputProcess *****************
  2358 ;; Defined at:
  2359 ;;		line 125 in file "main.c"
  2360 ;; Parameters:    Size  Location     Type
  2361 ;;		None
  2362 ;; Auto vars:     Size  Location     Type
  2363 ;;		None
  2364 ;; Return value:  Size  Location     Type
  2365 ;;                  1    wreg      void 
  2366 ;; Registers used:
  2367 ;;		wreg, status,2, status,0
  2368 ;; Tracked objects:
  2369 ;;		On entry : 0/0
  2370 ;;		On exit  : 0/0
  2371 ;;		Unchanged: 0/0
  2372 ;; Data sizes:     COMMON   BANK0   BANK1   BANK2   BANK3   BANK4
  2373 ;;      Params:         0       0       0       0       0       0
  2374 ;;      Locals:         0       0       0       0       0       0
  2375 ;;      Temps:          0       0       0       0       0       0
  2376 ;;      Totals:         0       0       0       0       0       0
  2377 ;;Total ram usage:        0 bytes
  2378 ;; Hardware stack levels used:    1
  2379 ;; Hardware stack levels required when called:    4
  2380 ;; This function calls:
  2381 ;;		Nothing
  2382 ;; This function is called by:
  2383 ;;		_main
  2384 ;; This function uses a non-reentrant model
  2385 ;;
  2386                           
  2387                           
  2388                           ;psect for function _InputProcess
  2389  0194                     _InputProcess:	
  2390                           
  2391                           ;main.c: 126:     if (SW1.State == 1 && SW2.State == 1) {
  2392                           
  2393                           ;incstack = 0
  2394                           ; Regs used in _InputProcess: [wreg+status,2+status,0]
  2395  0194  0020               	movlb	0	; select bank0
  2396  0195  0336               	decf	_SW1+6,w
  2397  0196  1D03               	btfss	3,2
  2398  0197  299E               	goto	l355
  2399  0198  032E               	decf	_SW2+6,w
  2400  0199  1D03               	btfss	3,2
  2401  019A  299E               	goto	l355
  2402                           
  2403                           ;main.c: 127:         LATAbits.LATA2 = 0;
  2404  019B  0022               	movlb	2	; select bank2
  2405  019C  110C               	bcf	12,2	;volatile
  2406                           
  2407                           ;main.c: 128:     } else {
  2408  019D  0008               	return
  2409  019E                     l355:	
  2410                           
  2411                           ;main.c: 129:         LATAbits.LATA2 = 1;
  2412  019E  0022               	movlb	2	; select bank2
  2413  019F  150C               	bsf	12,2	;volatile
  2414                           
  2415                           ;main.c: 132:         if (SW1.State == 1) {
  2416  01A0  0020               	movlb	0	; select bank0
  2417  01A1  0336               	decf	_SW1+6,w
  2418  01A2  1D03               	btfss	3,2
  2419  01A3  29A7               	goto	l357
  2420                           
  2421                           ;main.c: 134:             LATAbits.LATA0 = 0;
  2422  01A4  0022               	movlb	2	; select bank2
  2423  01A5  100C               	bcf	12,0	;volatile
  2424                           
  2425                           ;main.c: 135:         } else {
  2426  01A6  29A9               	goto	l1784
  2427  01A7                     l357:	
  2428                           
  2429                           ;main.c: 136:             LATAbits.LATA0 = 1;
  2430  01A7  0022               	movlb	2	; select bank2
  2431  01A8  140C               	bsf	12,0	;volatile
  2432  01A9                     l1784:	
  2433                           
  2434                           ;main.c: 139:         if (SW2.State == 1) {
  2435  01A9  0020               	movlb	0	; select bank0
  2436  01AA  032E               	decf	_SW2+6,w
  2437  01AB  1D03               	btfss	3,2
  2438  01AC  29B0               	goto	l359
  2439                           
  2440                           ;main.c: 140:             LATAbits.LATA1 = 0;
  2441  01AD  0022               	movlb	2	; select bank2
  2442  01AE  108C               	bcf	12,1	;volatile
  2443                           
  2444                           ;main.c: 141:         } else {
  2445  01AF  0008               	return
  2446  01B0                     l359:	
  2447                           
  2448                           ;main.c: 142:             LATAbits.LATA1 = 1;
  2449  01B0  0022               	movlb	2	; select bank2
  2450  01B1  148C               	bsf	12,1	;volatile
  2451  01B2  0008               	return
  2452  01B3                     __end_of_InputProcess:	
  2453                           
  2454                           	psect	text14
  2455  02CE                     __ptext14:	
  2456 ;; *************** function _Chata *****************
  2457 ;; Defined at:
  2458 ;;		line 154 in file "main.c"
  2459 ;; Parameters:    Size  Location     Type
  2460 ;;		None
  2461 ;; Auto vars:     Size  Location     Type
  2462 ;;		None
  2463 ;; Return value:  Size  Location     Type
  2464 ;;                  1    wreg      void 
  2465 ;; Registers used:
  2466 ;;		None
  2467 ;; Tracked objects:
  2468 ;;		On entry : 0/0
  2469 ;;		On exit  : 0/0
  2470 ;;		Unchanged: 0/0
  2471 ;; Data sizes:     COMMON   BANK0   BANK1   BANK2   BANK3   BANK4
  2472 ;;      Params:         0       0       0       0       0       0
  2473 ;;      Locals:         0       0       0       0       0       0
  2474 ;;      Temps:          0       0       0       0       0       0
  2475 ;;      Totals:         0       0       0       0       0       0
  2476 ;;Total ram usage:        0 bytes
  2477 ;; Hardware stack levels used:    1
  2478 ;; Hardware stack levels required when called:    4
  2479 ;; This function calls:
  2480 ;;		Nothing
  2481 ;; This function is called by:
  2482 ;;		_main
  2483 ;; This function uses a non-reentrant model
  2484 ;;
  2485                           
  2486                           
  2487                           ;psect for function _Chata
  2488  02CE                     _Chata:	
  2489                           
  2490                           ;incstack = 0
  2491                           ; Regs used in _Chata: []
  2492  02CE  0008               	return
  2493  02CF                     __end_of_Chata:	
  2494                           
  2495                           	psect	intentry
  2496  0004                     __pintentry:	
  2497 ;; *************** function _INTERRUPT_InterruptManager *****************
  2498 ;; Defined at:
  2499 ;;		line 52 in file "mcc_generated_files/interrupt_manager.c"
  2500 ;; Parameters:    Size  Location     Type
  2501 ;;		None
  2502 ;; Auto vars:     Size  Location     Type
  2503 ;;		None
  2504 ;; Return value:  Size  Location     Type
  2505 ;;                  1    wreg      void 
  2506 ;; Registers used:
  2507 ;;		wreg, fsr0l, fsr0h, status,2, status,0, pclath, cstack
  2508 ;; Tracked objects:
  2509 ;;		On entry : 0/0
  2510 ;;		On exit  : 0/0
  2511 ;;		Unchanged: 0/0
  2512 ;; Data sizes:     COMMON   BANK0   BANK1   BANK2   BANK3   BANK4
  2513 ;;      Params:         0       0       0       0       0       0
  2514 ;;      Locals:         0       0       0       0       0       0
  2515 ;;      Temps:          0       0       0       0       0       0
  2516 ;;      Totals:         0       0       0       0       0       0
  2517 ;;Total ram usage:        0 bytes
  2518 ;; Hardware stack levels used:    1
  2519 ;; Hardware stack levels required when called:    3
  2520 ;; This function calls:
  2521 ;;		_PIN_MANAGER_IOC
  2522 ;;		_TMR1_ISR
  2523 ;;		_TMR2_ISR
  2524 ;; This function is called by:
  2525 ;;		Interrupt level 1
  2526 ;; This function uses a non-reentrant model
  2527 ;;
  2528                           
  2529  0004                     _INTERRUPT_InterruptManager:	
  2530                           
  2531                           ;incstack = 0
  2532  0004  147E               	bsf	126,0	;set compiler interrupt flag (level 1)
  2533                           
  2534                           ; Regs used in _INTERRUPT_InterruptManager: [wreg-fsr0h+status,2+status,0+pclath+cstack]
  2535  0005  3180               	pagesel	$
  2536                           
  2537                           ;mcc_generated_files/interrupt_manager.c: 55:     if(INTCONbits.IOCIE == 1 && INTCONbits
      +                          .IOCIF == 1)
  2538  0006  198B               	btfsc	11,3	;volatile
  2539  0007  1C0B               	btfss	11,0	;volatile
  2540  0008  280D               	goto	i1l143
  2541                           
  2542                           ;mcc_generated_files/interrupt_manager.c: 56:     {;mcc_generated_files/interrupt_manage
      +                          r.c: 57:         PIN_MANAGER_IOC();
  2543  0009  3181  21F5  3180   	fcall	_PIN_MANAGER_IOC
  2544                           
  2545                           ;mcc_generated_files/interrupt_manager.c: 58:     }
  2546  000C  2821               	goto	i1l151
  2547  000D                     i1l143:	
  2548                           ;mcc_generated_files/interrupt_manager.c: 59:     else if(INTCONbits.PEIE == 1)
  2549                           
  2550  000D  1F0B               	btfss	11,6	;volatile
  2551  000E  2821               	goto	i1l151
  2552                           
  2553                           ;mcc_generated_files/interrupt_manager.c: 60:     {;mcc_generated_files/interrupt_manage
      +                          r.c: 61:         if(PIE1bits.TMR2IE == 1 && PIR1bits.TMR2IF == 1)
  2554  000F  0021               	movlb	1	; select bank1
  2555  0010  1C91               	btfss	17,1	;volatile
  2556  0011  2819               	goto	i1l146
  2557  0012  0020               	movlb	0	; select bank0
  2558  0013  1C91               	btfss	17,1	;volatile
  2559  0014  2819               	goto	i1l146
  2560                           
  2561                           ;mcc_generated_files/interrupt_manager.c: 62:         {;mcc_generated_files/interrupt_ma
      +                          nager.c: 63:             TMR2_ISR();
  2562  0015  3182  22B6  3180   	fcall	_TMR2_ISR
  2563                           
  2564                           ;mcc_generated_files/interrupt_manager.c: 64:         }
  2565  0018  2821               	goto	i1l151
  2566  0019                     i1l146:	
  2567                           ;mcc_generated_files/interrupt_manager.c: 65:         else if(PIE1bits.TMR1IE == 1 && PI
      +                          R1bits.TMR1IF == 1)
  2568                           
  2569  0019  0021               	movlb	1	; select bank1
  2570  001A  1C11               	btfss	17,0	;volatile
  2571  001B  2821               	goto	i1l151
  2572  001C  0020               	movlb	0	; select bank0
  2573  001D  1C11               	btfss	17,0	;volatile
  2574  001E  2821               	goto	i1l151
  2575                           
  2576                           ;mcc_generated_files/interrupt_manager.c: 66:         {;mcc_generated_files/interrupt_ma
      +                          nager.c: 67:             TMR1_ISR();
  2577  001F  3182  2251         	fcall	_TMR1_ISR
  2578  0021                     i1l151:	
  2579                           ;mcc_generated_files/interrupt_manager.c: 75:     {;mcc_generated_files/interrupt_manage
      +                          r.c: 77:     }
  2580                           
  2581                           ;mcc_generated_files/interrupt_manager.c: 68:         }
  2582                           
  2583  0021  107E               	bcf	126,0	;clear compiler interrupt flag (level 1)
  2584  0022  0009               	retfie
  2585  0023                     __end_of_INTERRUPT_InterruptManager:	
  2586                           
  2587                           	psect	text16
  2588  02B6                     __ptext16:	
  2589 ;; *************** function _TMR2_ISR *****************
  2590 ;; Defined at:
  2591 ;;		line 119 in file "mcc_generated_files/tmr2.c"
  2592 ;; Parameters:    Size  Location     Type
  2593 ;;		None
  2594 ;; Auto vars:     Size  Location     Type
  2595 ;;		None
  2596 ;; Return value:  Size  Location     Type
  2597 ;;                  1    wreg      void 
  2598 ;; Registers used:
  2599 ;;		wreg, fsr0l, fsr0h, status,2, status,0, pclath, cstack
  2600 ;; Tracked objects:
  2601 ;;		On entry : 0/0
  2602 ;;		On exit  : 0/0
  2603 ;;		Unchanged: 0/0
  2604 ;; Data sizes:     COMMON   BANK0   BANK1   BANK2   BANK3   BANK4
  2605 ;;      Params:         0       0       0       0       0       0
  2606 ;;      Locals:         0       0       0       0       0       0
  2607 ;;      Temps:          0       0       0       0       0       0
  2608 ;;      Totals:         0       0       0       0       0       0
  2609 ;;Total ram usage:        0 bytes
  2610 ;; Hardware stack levels used:    1
  2611 ;; Hardware stack levels required when called:    2
  2612 ;; This function calls:
  2613 ;;		_TMR2_CallBack
  2614 ;; This function is called by:
  2615 ;;		_INTERRUPT_InterruptManager
  2616 ;; This function uses a non-reentrant model
  2617 ;;
  2618                           
  2619                           
  2620                           ;psect for function _TMR2_ISR
  2621  02B6                     _TMR2_ISR:	
  2622                           
  2623                           ;mcc_generated_files/tmr2.c: 122:     PIR1bits.TMR2IF = 0;
  2624                           
  2625                           ;incstack = 0
  2626                           ; Regs used in _TMR2_ISR: [wreg-fsr0h+status,2+status,0+pclath+cstack]
  2627  02B6  0020               	movlb	0	; select bank0
  2628  02B7  1091               	bcf	17,1	;volatile
  2629                           
  2630                           ;mcc_generated_files/tmr2.c: 126:     TMR2_CallBack();
  2631  02B8  3182  2275         	fcall	_TMR2_CallBack
  2632  02BA  0008               	return
  2633  02BB                     __end_of_TMR2_ISR:	
  2634                           
  2635                           	psect	text17
  2636  0275                     __ptext17:	
  2637 ;; *************** function _TMR2_CallBack *****************
  2638 ;; Defined at:
  2639 ;;		line 129 in file "mcc_generated_files/tmr2.c"
  2640 ;; Parameters:    Size  Location     Type
  2641 ;;		None
  2642 ;; Auto vars:     Size  Location     Type
  2643 ;;		None
  2644 ;; Return value:  Size  Location     Type
  2645 ;;                  1    wreg      void 
  2646 ;; Registers used:
  2647 ;;		wreg, fsr0l, fsr0h, status,2, status,0, pclath, cstack
  2648 ;; Tracked objects:
  2649 ;;		On entry : 0/0
  2650 ;;		On exit  : 0/0
  2651 ;;		Unchanged: 0/0
  2652 ;; Data sizes:     COMMON   BANK0   BANK1   BANK2   BANK3   BANK4
  2653 ;;      Params:         0       0       0       0       0       0
  2654 ;;      Locals:         0       0       0       0       0       0
  2655 ;;      Temps:          0       0       0       0       0       0
  2656 ;;      Totals:         0       0       0       0       0       0
  2657 ;;Total ram usage:        0 bytes
  2658 ;; Hardware stack levels used:    1
  2659 ;; Hardware stack levels required when called:    1
  2660 ;; This function calls:
  2661 ;;		Absolute function
  2662 ;;		_TMR2_DefaultInterruptHandler
  2663 ;; This function is called by:
  2664 ;;		_TMR2_ISR
  2665 ;; This function uses a non-reentrant model
  2666 ;;
  2667                           
  2668                           
  2669                           ;psect for function _TMR2_CallBack
  2670  0275                     _TMR2_CallBack:	
  2671                           
  2672                           ;mcc_generated_files/tmr2.c: 132:     if (TMR2_InterruptHandler) {
  2673                           
  2674                           ;incstack = 0
  2675                           ; Regs used in _TMR2_CallBack: [wreg-fsr0h+status,2+status,0+pclath+cstack]
  2676  0275  0020               	movlb	0	; select bank0
  2677  0276  0838               	movf	_TMR2_InterruptHandler,w
  2678  0277  0439               	iorwf	_TMR2_InterruptHandler+1,w
  2679  0278  1903               	btfsc	3,2
  2680  0279  0008               	return
  2681                           
  2682                           ;mcc_generated_files/tmr2.c: 133:         TMR2_InterruptHandler();
  2683  027A  0839               	movf	_TMR2_InterruptHandler+1,w
  2684  027B  008A               	movwf	10
  2685  027C  0838               	movf	_TMR2_InterruptHandler,w
  2686  027D  000A               	callw
  2687  027E  3182               	pagesel	$
  2688  027F  0008               	return
  2689  0280                     __end_of_TMR2_CallBack:	
  2690                           
  2691                           	psect	text18
  2692  0037                     __ptext18:	
  2693 ;; *************** function _TMR2_DefaultInterruptHandler *****************
  2694 ;; Defined at:
  2695 ;;		line 141 in file "mcc_generated_files/tmr2.c"
  2696 ;; Parameters:    Size  Location     Type
  2697 ;;		None
  2698 ;; Auto vars:     Size  Location     Type
  2699 ;;		None
  2700 ;; Return value:  Size  Location     Type
  2701 ;;                  1    wreg      void 
  2702 ;; Registers used:
  2703 ;;		wreg, fsr0l, fsr0h, status,2, status,0
  2704 ;; Tracked objects:
  2705 ;;		On entry : 0/0
  2706 ;;		On exit  : 0/0
  2707 ;;		Unchanged: 0/0
  2708 ;; Data sizes:     COMMON   BANK0   BANK1   BANK2   BANK3   BANK4
  2709 ;;      Params:         0       0       0       0       0       0
  2710 ;;      Locals:         0       0       0       0       0       0
  2711 ;;      Temps:          2       0       0       0       0       0
  2712 ;;      Totals:         2       0       0       0       0       0
  2713 ;;Total ram usage:        2 bytes
  2714 ;; Hardware stack levels used:    1
  2715 ;; This function calls:
  2716 ;;		Nothing
  2717 ;; This function is called by:
  2718 ;;		_TMR2_Initialize
  2719 ;;		_TMR2_CallBack
  2720 ;; This function uses a non-reentrant model
  2721 ;;
  2722                           
  2723                           
  2724                           ;psect for function _TMR2_DefaultInterruptHandler
  2725  0037                     _TMR2_DefaultInterruptHandler:	
  2726                           
  2727                           ;mcc_generated_files/tmr2.c: 147:     if (SW1.IntFlg == 1) {
  2728                           
  2729                           ;incstack = 0
  2730                           ; Regs used in _TMR2_DefaultInterruptHandler: [wreg-fsr0h+status,2+status,0]
  2731  0037  0020               	movlb	0	; select bank0
  2732  0038  0330               	decf	_SW1,w
  2733  0039  1D03               	btfss	3,2
  2734  003A  2897               	goto	i1l1554
  2735                           
  2736                           ;mcc_generated_files/tmr2.c: 150:         SW1.ReadValue = ~(PORTBbits.RB0);
  2737  003B  1003               	clrc
  2738  003C  1C0D               	btfss	13,0	;volatile
  2739  003D  1403               	setc
  2740  003E  3000               	movlw	0
  2741  003F  1803               	btfsc	3,0
  2742  0040  3001               	movlw	1
  2743  0041  00B1               	movwf	_SW1+1
  2744                           
  2745                           ;mcc_generated_files/tmr2.c: 153:         switch (SW1.ChattaState) {
  2746  0042  2884               	goto	i1l1552
  2747  0043                     i1l1520:	
  2748                           
  2749                           ;mcc_generated_files/tmr2.c: 160:                 if (SW1.CheckCount >= 3) {
  2750  0043  3003               	movlw	3
  2751  0044  0233               	subwf	_SW1+3,w
  2752  0045  1C03               	skipc
  2753  0046  2854               	goto	i1l1532
  2754                           
  2755                           ;mcc_generated_files/tmr2.c: 162:                     if (SW1.RiseCompareFlg == 1) {
  2756  0047  0334               	decf	_SW1+4,w
  2757  0048  1D03               	btfss	3,2
  2758  0049  2850               	goto	i1l1528
  2759                           
  2760                           ;mcc_generated_files/tmr2.c: 164:                         SW1.ChattaState = ONGOING;
  2761  004A  01B2               	clrf	_SW1+2
  2762  004B  0AB2               	incf	_SW1+2,f
  2763                           
  2764                           ;mcc_generated_files/tmr2.c: 166:                         SW1.State = 1;
  2765  004C  01B6               	clrf	_SW1+6
  2766  004D  0AB6               	incf	_SW1+6,f
  2767                           
  2768                           ;mcc_generated_files/tmr2.c: 168:                         SW1.CheckCount = 0;
  2769  004E  01B3               	clrf	_SW1+3
  2770                           
  2771                           ;mcc_generated_files/tmr2.c: 169:                     } else {
  2772  004F  2897               	goto	i1l1554
  2773  0050                     i1l1528:	
  2774                           
  2775                           ;mcc_generated_files/tmr2.c: 171:                         SW1.CheckCount = 0;
  2776  0050  01B3               	clrf	_SW1+3
  2777                           
  2778                           ;mcc_generated_files/tmr2.c: 173:                         SW1.RiseCompareFlg = 1;
  2779  0051  01B4               	clrf	_SW1+4
  2780  0052  0AB4               	incf	_SW1+4,f
  2781  0053  2873               	goto	L1
  2782  0054                     i1l1532:	
  2783                           ;mcc_generated_files/tmr2.c: 182:                         SW1.IntFlg = 0;
  2784                           
  2785                           ;mcc_generated_files/tmr2.c: 180:                         SW1.State = 0;
  2786                           
  2787                           
  2788                           ;mcc_generated_files/tmr2.c: 188:                     SW1.RiseCompareFlg &= SW1.ReadValu
      +                          e;
  2789  0054  0831               	movf	_SW1+1,w
  2790  0055  00F9               	movwf	??_TMR2_DefaultInterruptHandler
  2791  0056  0879               	movf	??_TMR2_DefaultInterruptHandler,w
  2792  0057  05B4               	andwf	_SW1+4,f
  2793  0058  287F               	goto	L2
  2794  0059                     i1l1534:	
  2795                           ;mcc_generated_files/tmr2.c: 191:                     SW1.CheckCount++;
  2796                           
  2797                           
  2798                           ;mcc_generated_files/tmr2.c: 198:                 SW1.SWCount++;
  2799  0059  3001               	movlw	1
  2800  005A  00F9               	movwf	??_TMR2_DefaultInterruptHandler
  2801  005B  0879               	movf	??_TMR2_DefaultInterruptHandler,w
  2802  005C  07B7               	addwf	_SW1+7,f
  2803                           
  2804                           ;mcc_generated_files/tmr2.c: 200:                 if (SW1.ReadValue == 0) {
  2805  005D  0831               	movf	_SW1+1,w
  2806  005E  1D03               	btfss	3,2
  2807  005F  2897               	goto	i1l1554
  2808                           
  2809                           ;mcc_generated_files/tmr2.c: 202:                     SW1.ChattaState = FALLING;
  2810  0060  3002               	movlw	2
  2811  0061  00F9               	movwf	??_TMR2_DefaultInterruptHandler
  2812  0062  0879               	movf	??_TMR2_DefaultInterruptHandler,w
  2813  0063  00B2               	movwf	_SW1+2
  2814  0064  2897               	goto	i1l1554
  2815  0065                     i1l1538:	
  2816                           
  2817                           ;mcc_generated_files/tmr2.c: 212:                 SW1.SWCount++;
  2818  0065  3001               	movlw	1
  2819  0066  00F9               	movwf	??_TMR2_DefaultInterruptHandler
  2820  0067  0879               	movf	??_TMR2_DefaultInterruptHandler,w
  2821  0068  07B7               	addwf	_SW1+7,f
  2822                           
  2823                           ;mcc_generated_files/tmr2.c: 214:                 if (SW1.CheckCount >= 3) {
  2824  0069  3003               	movlw	3
  2825  006A  0233               	subwf	_SW1+3,w
  2826  006B  1C03               	skipc
  2827  006C  287B               	goto	i1l1548
  2828                           
  2829                           ;mcc_generated_files/tmr2.c: 216:                     if (SW1.FallCompareFlg == 0) {
  2830  006D  0835               	movf	_SW1+5,w
  2831  006E  1D03               	btfss	3,2
  2832  006F  2876               	goto	i1l289
  2833                           
  2834                           ;mcc_generated_files/tmr2.c: 221:                         SW1.ChattaState = RISING;
  2835  0070  01B2               	clrf	_SW1+2
  2836                           
  2837                           ;mcc_generated_files/tmr2.c: 223:                         SW1.CheckCount = 0;
  2838  0071  01B3               	clrf	_SW1+3
  2839                           
  2840                           ;mcc_generated_files/tmr2.c: 228:                         SW1.SWCount = 0;
  2841  0072  01B7               	clrf	_SW1+7
  2842  0073                     L1:	
  2843                           
  2844                           ;mcc_generated_files/tmr2.c: 230:                         SW1.State = 0;
  2845  0073  01B6               	clrf	_SW1+6
  2846                           
  2847                           ;mcc_generated_files/tmr2.c: 232:                         SW1.IntFlg = 0;
  2848  0074  01B0               	clrf	_SW1
  2849                           
  2850                           ;mcc_generated_files/tmr2.c: 234:                     } else {
  2851  0075  2897               	goto	i1l1554
  2852  0076                     i1l289:	
  2853                           
  2854                           ;mcc_generated_files/tmr2.c: 239:                         SW1.ChattaState = ONGOING;
  2855  0076  01B2               	clrf	_SW1+2
  2856  0077  0AB2               	incf	_SW1+2,f
  2857                           
  2858                           ;mcc_generated_files/tmr2.c: 241:                         SW1.CheckCount = 0;
  2859  0078  01B3               	clrf	_SW1+3
  2860                           
  2861                           ;mcc_generated_files/tmr2.c: 243:                         SW1.FallCompareFlg = 0;
  2862  0079  01B5               	clrf	_SW1+5
  2863  007A  2897               	goto	i1l1554
  2864  007B                     i1l1548:	
  2865                           
  2866                           ;mcc_generated_files/tmr2.c: 250:                     SW1.FallCompareFlg |= SW1.ReadValu
      +                          e;
  2867  007B  0831               	movf	_SW1+1,w
  2868  007C  00F9               	movwf	??_TMR2_DefaultInterruptHandler
  2869  007D  0879               	movf	??_TMR2_DefaultInterruptHandler,w
  2870  007E  04B5               	iorwf	_SW1+5,f
  2871  007F                     L2:	
  2872                           
  2873                           ;mcc_generated_files/tmr2.c: 252:                     SW1.CheckCount++;
  2874  007F  3001               	movlw	1
  2875  0080  00F9               	movwf	??_TMR2_DefaultInterruptHandler
  2876  0081  0879               	movf	??_TMR2_DefaultInterruptHandler,w
  2877  0082  07B3               	addwf	_SW1+3,f
  2878  0083  2897               	goto	i1l1554
  2879  0084                     i1l1552:	
  2880  0084  0832               	movf	_SW1+2,w
  2881  0085  00F9               	movwf	??_TMR2_DefaultInterruptHandler
  2882  0086  01FA               	clrf	??_TMR2_DefaultInterruptHandler+1
  2883                           
  2884                           ; Switch on 2 bytes has been partitioned into a top level switch of size 1, and 1 sub-sw
      +                          itches
  2885                           ; Switch size 1, requested type "simple"
  2886                           ; Number of cases is 1, Range of values is 0 to 0
  2887                           ; switch strategies available:
  2888                           ; Name         Instructions Cycles
  2889                           ; simple_byte            4     3 (average)
  2890                           ; direct_byte            8     6 (fixed)
  2891                           ; jumptable            260     6 (fixed)
  2892                           ;	Chosen strategy is simple_byte
  2893  0087  087A               	movf	??_TMR2_DefaultInterruptHandler+1,w
  2894  0088  3A00               	xorlw	0	; case 0
  2895  0089  1903               	skipnz
  2896  008A  288C               	goto	i1l2034
  2897  008B  2897               	goto	i1l1554
  2898  008C                     i1l2034:	
  2899                           
  2900                           ; Switch size 1, requested type "simple"
  2901                           ; Number of cases is 3, Range of values is 0 to 2
  2902                           ; switch strategies available:
  2903                           ; Name         Instructions Cycles
  2904                           ; simple_byte           10     6 (average)
  2905                           ; direct_byte           12     6 (fixed)
  2906                           ; jumptable            260     6 (fixed)
  2907                           ;	Chosen strategy is simple_byte
  2908  008C  0879               	movf	??_TMR2_DefaultInterruptHandler,w
  2909  008D  3A00               	xorlw	0	; case 0
  2910  008E  1903               	skipnz
  2911  008F  2843               	goto	i1l1520
  2912  0090  3A01               	xorlw	1	; case 1
  2913  0091  1903               	skipnz
  2914  0092  2859               	goto	i1l1534
  2915  0093  3A03               	xorlw	3	; case 2
  2916  0094  1903               	skipnz
  2917  0095  2865               	goto	i1l1538
  2918  0096  2897               	goto	i1l1554
  2919  0097                     i1l1554:	
  2920                           
  2921                           ;mcc_generated_files/tmr2.c: 259:     if (SW2.IntFlg == 1) {
  2922  0097  0328               	decf	_SW2,w
  2923  0098  1D03               	btfss	3,2
  2924  0099  28F6               	goto	i1l1592
  2925                           
  2926                           ;mcc_generated_files/tmr2.c: 262:         SW2.ReadValue = ~(PORTBbits.RB1);
  2927  009A  1003               	clrc
  2928  009B  1C8D               	btfss	13,1	;volatile
  2929  009C  1403               	setc
  2930  009D  3000               	movlw	0
  2931  009E  1803               	btfsc	3,0
  2932  009F  3001               	movlw	1
  2933  00A0  00A9               	movwf	_SW2+1
  2934                           
  2935                           ;mcc_generated_files/tmr2.c: 265:         switch (SW2.ChattaState) {
  2936  00A1  28E3               	goto	i1l1590
  2937  00A2                     i1l1558:	
  2938                           
  2939                           ;mcc_generated_files/tmr2.c: 272:                 if (SW2.CheckCount >= 3) {
  2940  00A2  3003               	movlw	3
  2941  00A3  022B               	subwf	_SW2+3,w
  2942  00A4  1C03               	skipc
  2943  00A5  28B3               	goto	i1l1570
  2944                           
  2945                           ;mcc_generated_files/tmr2.c: 274:                     if (SW2.RiseCompareFlg == 1) {
  2946  00A6  032C               	decf	_SW2+4,w
  2947  00A7  1D03               	btfss	3,2
  2948  00A8  28AF               	goto	i1l1566
  2949                           
  2950                           ;mcc_generated_files/tmr2.c: 276:                         SW2.ChattaState = ONGOING;
  2951  00A9  01AA               	clrf	_SW2+2
  2952  00AA  0AAA               	incf	_SW2+2,f
  2953                           
  2954                           ;mcc_generated_files/tmr2.c: 278:                         SW2.State = 1;
  2955  00AB  01AE               	clrf	_SW2+6
  2956  00AC  0AAE               	incf	_SW2+6,f
  2957                           
  2958                           ;mcc_generated_files/tmr2.c: 280:                         SW2.CheckCount = 0;
  2959  00AD  01AB               	clrf	_SW2+3
  2960                           
  2961                           ;mcc_generated_files/tmr2.c: 281:                     } else {
  2962  00AE  28F6               	goto	i1l1592
  2963  00AF                     i1l1566:	
  2964                           
  2965                           ;mcc_generated_files/tmr2.c: 283:                         SW2.CheckCount = 0;
  2966  00AF  01AB               	clrf	_SW2+3
  2967                           
  2968                           ;mcc_generated_files/tmr2.c: 285:                         SW2.RiseCompareFlg = 1;
  2969  00B0  01AC               	clrf	_SW2+4
  2970  00B1  0AAC               	incf	_SW2+4,f
  2971  00B2  28D2               	goto	L3
  2972  00B3                     i1l1570:	
  2973                           ;mcc_generated_files/tmr2.c: 294:                         SW2.IntFlg = 0;
  2974                           
  2975                           ;mcc_generated_files/tmr2.c: 292:                         SW2.State = 0;
  2976                           
  2977                           
  2978                           ;mcc_generated_files/tmr2.c: 300:                     SW2.RiseCompareFlg &= SW2.ReadValu
      +                          e;
  2979  00B3  0829               	movf	_SW2+1,w
  2980  00B4  00F9               	movwf	??_TMR2_DefaultInterruptHandler
  2981  00B5  0879               	movf	??_TMR2_DefaultInterruptHandler,w
  2982  00B6  05AC               	andwf	_SW2+4,f
  2983  00B7  28DE               	goto	L4
  2984  00B8                     i1l1572:	
  2985                           ;mcc_generated_files/tmr2.c: 303:                     SW2.CheckCount++;
  2986                           
  2987                           
  2988                           ;mcc_generated_files/tmr2.c: 310:                 SW2.SWCount++;
  2989  00B8  3001               	movlw	1
  2990  00B9  00F9               	movwf	??_TMR2_DefaultInterruptHandler
  2991  00BA  0879               	movf	??_TMR2_DefaultInterruptHandler,w
  2992  00BB  07AF               	addwf	_SW2+7,f
  2993                           
  2994                           ;mcc_generated_files/tmr2.c: 312:                 if (SW2.ReadValue == 0) {
  2995  00BC  0829               	movf	_SW2+1,w
  2996  00BD  1D03               	btfss	3,2
  2997  00BE  28F6               	goto	i1l1592
  2998                           
  2999                           ;mcc_generated_files/tmr2.c: 314:                     SW2.ChattaState = FALLING;
  3000  00BF  3002               	movlw	2
  3001  00C0  00F9               	movwf	??_TMR2_DefaultInterruptHandler
  3002  00C1  0879               	movf	??_TMR2_DefaultInterruptHandler,w
  3003  00C2  00AA               	movwf	_SW2+2
  3004  00C3  28F6               	goto	i1l1592
  3005  00C4                     i1l1576:	
  3006                           
  3007                           ;mcc_generated_files/tmr2.c: 324:                 SW2.SWCount++;
  3008  00C4  3001               	movlw	1
  3009  00C5  00F9               	movwf	??_TMR2_DefaultInterruptHandler
  3010  00C6  0879               	movf	??_TMR2_DefaultInterruptHandler,w
  3011  00C7  07AF               	addwf	_SW2+7,f
  3012                           
  3013                           ;mcc_generated_files/tmr2.c: 326:                 if (SW2.CheckCount >= 3) {
  3014  00C8  3003               	movlw	3
  3015  00C9  022B               	subwf	_SW2+3,w
  3016  00CA  1C03               	skipc
  3017  00CB  28DA               	goto	i1l1586
  3018                           
  3019                           ;mcc_generated_files/tmr2.c: 328:                     if (SW2.FallCompareFlg == 0) {
  3020  00CC  082D               	movf	_SW2+5,w
  3021  00CD  1D03               	btfss	3,2
  3022  00CE  28D5               	goto	i1l304
  3023                           
  3024                           ;mcc_generated_files/tmr2.c: 333:                         SW2.ChattaState = RISING;
  3025  00CF  01AA               	clrf	_SW2+2
  3026                           
  3027                           ;mcc_generated_files/tmr2.c: 335:                         SW2.CheckCount = 0;
  3028  00D0  01AB               	clrf	_SW2+3
  3029                           
  3030                           ;mcc_generated_files/tmr2.c: 340:                         SW2.SWCount = 0;
  3031  00D1  01AF               	clrf	_SW2+7
  3032  00D2                     L3:	
  3033                           
  3034                           ;mcc_generated_files/tmr2.c: 342:                         SW2.State = 0;
  3035  00D2  01AE               	clrf	_SW2+6
  3036                           
  3037                           ;mcc_generated_files/tmr2.c: 344:                         SW2.IntFlg = 0;
  3038  00D3  01A8               	clrf	_SW2
  3039                           
  3040                           ;mcc_generated_files/tmr2.c: 346:                     } else {
  3041  00D4  28F6               	goto	i1l1592
  3042  00D5                     i1l304:	
  3043                           
  3044                           ;mcc_generated_files/tmr2.c: 351:                         SW2.ChattaState = ONGOING;
  3045  00D5  01AA               	clrf	_SW2+2
  3046  00D6  0AAA               	incf	_SW2+2,f
  3047                           
  3048                           ;mcc_generated_files/tmr2.c: 353:                         SW2.CheckCount = 0;
  3049  00D7  01AB               	clrf	_SW2+3
  3050                           
  3051                           ;mcc_generated_files/tmr2.c: 355:                         SW2.FallCompareFlg = 0;
  3052  00D8  01AD               	clrf	_SW2+5
  3053  00D9  28F6               	goto	i1l1592
  3054  00DA                     i1l1586:	
  3055                           
  3056                           ;mcc_generated_files/tmr2.c: 362:                     SW2.FallCompareFlg |= SW2.ReadValu
      +                          e;
  3057  00DA  0829               	movf	_SW2+1,w
  3058  00DB  00F9               	movwf	??_TMR2_DefaultInterruptHandler
  3059  00DC  0879               	movf	??_TMR2_DefaultInterruptHandler,w
  3060  00DD  04AD               	iorwf	_SW2+5,f
  3061  00DE                     L4:	
  3062                           
  3063                           ;mcc_generated_files/tmr2.c: 364:                     SW2.CheckCount++;
  3064  00DE  3001               	movlw	1
  3065  00DF  00F9               	movwf	??_TMR2_DefaultInterruptHandler
  3066  00E0  0879               	movf	??_TMR2_DefaultInterruptHandler,w
  3067  00E1  07AB               	addwf	_SW2+3,f
  3068  00E2  28F6               	goto	i1l1592
  3069  00E3                     i1l1590:	
  3070  00E3  082A               	movf	_SW2+2,w
  3071  00E4  00F9               	movwf	??_TMR2_DefaultInterruptHandler
  3072  00E5  01FA               	clrf	??_TMR2_DefaultInterruptHandler+1
  3073                           
  3074                           ; Switch on 2 bytes has been partitioned into a top level switch of size 1, and 1 sub-sw
      +                          itches
  3075                           ; Switch size 1, requested type "simple"
  3076                           ; Number of cases is 1, Range of values is 0 to 0
  3077                           ; switch strategies available:
  3078                           ; Name         Instructions Cycles
  3079                           ; simple_byte            4     3 (average)
  3080                           ; direct_byte            8     6 (fixed)
  3081                           ; jumptable            260     6 (fixed)
  3082                           ;	Chosen strategy is simple_byte
  3083  00E6  087A               	movf	??_TMR2_DefaultInterruptHandler+1,w
  3084  00E7  3A00               	xorlw	0	; case 0
  3085  00E8  1903               	skipnz
  3086  00E9  28EB               	goto	i1l2036
  3087  00EA  28F6               	goto	i1l1592
  3088  00EB                     i1l2036:	
  3089                           
  3090                           ; Switch size 1, requested type "simple"
  3091                           ; Number of cases is 3, Range of values is 0 to 2
  3092                           ; switch strategies available:
  3093                           ; Name         Instructions Cycles
  3094                           ; simple_byte           10     6 (average)
  3095                           ; direct_byte           12     6 (fixed)
  3096                           ; jumptable            260     6 (fixed)
  3097                           ;	Chosen strategy is simple_byte
  3098  00EB  0879               	movf	??_TMR2_DefaultInterruptHandler,w
  3099  00EC  3A00               	xorlw	0	; case 0
  3100  00ED  1903               	skipnz
  3101  00EE  28A2               	goto	i1l1558
  3102  00EF  3A01               	xorlw	1	; case 1
  3103  00F0  1903               	skipnz
  3104  00F1  28B8               	goto	i1l1572
  3105  00F2  3A03               	xorlw	3	; case 2
  3106  00F3  1903               	skipnz
  3107  00F4  28C4               	goto	i1l1576
  3108  00F5  28F6               	goto	i1l1592
  3109  00F6                     i1l1592:	
  3110                           
  3111                           ;mcc_generated_files/tmr2.c: 371:     if (SW3.IntFlg == 1) {
  3112  00F6  0320               	decf	_SW3,w
  3113  00F7  1D03               	btfss	3,2
  3114  00F8  0008               	return
  3115                           
  3116                           ;mcc_generated_files/tmr2.c: 374:         SW3.ReadValue = ~(PORTBbits.RB2);
  3117  00F9  1003               	clrc
  3118  00FA  1D0D               	btfss	13,2	;volatile
  3119  00FB  1403               	setc
  3120  00FC  3000               	movlw	0
  3121  00FD  1803               	btfsc	3,0
  3122  00FE  3001               	movlw	1
  3123  00FF  00A1               	movwf	_SW3+1
  3124                           
  3125                           ;mcc_generated_files/tmr2.c: 377:         switch (SW3.ChattaState) {
  3126  0100  2948               	goto	i1l1628
  3127  0101                     i1l1596:	
  3128                           
  3129                           ;mcc_generated_files/tmr2.c: 384:                 if (SW3.CheckCount >= 3) {
  3130  0101  3003               	movlw	3
  3131  0102  0223               	subwf	_SW3+3,w
  3132  0103  1C03               	skipc
  3133  0104  2914               	goto	i1l1608
  3134                           
  3135                           ;mcc_generated_files/tmr2.c: 386:                     if (SW3.RiseCompareFlg == 1) {
  3136  0105  0324               	decf	_SW3+4,w
  3137  0106  1D03               	btfss	3,2
  3138  0107  290E               	goto	i1l1604
  3139                           
  3140                           ;mcc_generated_files/tmr2.c: 388:                         SW3.ChattaState = ONGOING;
  3141  0108  01A2               	clrf	_SW3+2
  3142  0109  0AA2               	incf	_SW3+2,f
  3143                           
  3144                           ;mcc_generated_files/tmr2.c: 390:                         SW3.State = 1;
  3145  010A  01A6               	clrf	_SW3+6
  3146  010B  0AA6               	incf	_SW3+6,f
  3147                           
  3148                           ;mcc_generated_files/tmr2.c: 392:                         SW3.CheckCount = 0;
  3149  010C  01A3               	clrf	_SW3+3
  3150                           
  3151                           ;mcc_generated_files/tmr2.c: 393:                     } else {
  3152  010D  0008               	return
  3153  010E                     i1l1604:	
  3154                           
  3155                           ;mcc_generated_files/tmr2.c: 395:                         SW3.CheckCount = 0;
  3156  010E  01A3               	clrf	_SW3+3
  3157                           
  3158                           ;mcc_generated_files/tmr2.c: 397:                         SW3.RiseCompareFlg = 1;
  3159  010F  01A4               	clrf	_SW3+4
  3160  0110  0AA4               	incf	_SW3+4,f
  3161                           
  3162                           ;mcc_generated_files/tmr2.c: 404:                         SW3.State = 0;
  3163  0111  01A6               	clrf	_SW3+6
  3164                           
  3165                           ;mcc_generated_files/tmr2.c: 406:                         SW3.IntFlg = 0;
  3166  0112  01A0               	clrf	_SW3
  3167  0113  0008               	return
  3168  0114                     i1l1608:	
  3169                           
  3170                           ;mcc_generated_files/tmr2.c: 412:                     SW3.RiseCompareFlg &= SW3.ReadValu
      +                          e;
  3171  0114  0821               	movf	_SW3+1,w
  3172  0115  00F9               	movwf	??_TMR2_DefaultInterruptHandler
  3173  0116  0879               	movf	??_TMR2_DefaultInterruptHandler,w
  3174  0117  05A4               	andwf	_SW3+4,f
  3175                           
  3176                           ;mcc_generated_files/tmr2.c: 415:                     SW3.CheckCount++;
  3177  0118  3001               	movlw	1
  3178  0119  00F9               	movwf	??_TMR2_DefaultInterruptHandler
  3179  011A  0879               	movf	??_TMR2_DefaultInterruptHandler,w
  3180  011B  07A3               	addwf	_SW3+3,f
  3181  011C  0008               	return
  3182  011D                     i1l1610:	
  3183                           
  3184                           ;mcc_generated_files/tmr2.c: 422:                 SW3.SWCount++;
  3185  011D  3001               	movlw	1
  3186  011E  00F9               	movwf	??_TMR2_DefaultInterruptHandler
  3187  011F  0879               	movf	??_TMR2_DefaultInterruptHandler,w
  3188  0120  07A7               	addwf	_SW3+7,f
  3189                           
  3190                           ;mcc_generated_files/tmr2.c: 424:                 if (SW3.ReadValue == 0) {
  3191  0121  0821               	movf	_SW3+1,w
  3192  0122  1D03               	btfss	3,2
  3193  0123  0008               	return
  3194                           
  3195                           ;mcc_generated_files/tmr2.c: 426:                     SW3.ChattaState = FALLING;
  3196  0124  3002               	movlw	2
  3197  0125  00F9               	movwf	??_TMR2_DefaultInterruptHandler
  3198  0126  0879               	movf	??_TMR2_DefaultInterruptHandler,w
  3199  0127  00A2               	movwf	_SW3+2
  3200  0128  0008               	return
  3201  0129                     i1l1614:	
  3202                           
  3203                           ;mcc_generated_files/tmr2.c: 436:                 SW3.SWCount++;
  3204  0129  3001               	movlw	1
  3205  012A  00F9               	movwf	??_TMR2_DefaultInterruptHandler
  3206  012B  0879               	movf	??_TMR2_DefaultInterruptHandler,w
  3207  012C  07A7               	addwf	_SW3+7,f
  3208                           
  3209                           ;mcc_generated_files/tmr2.c: 438:                 if (SW3.CheckCount >= 3) {
  3210  012D  3003               	movlw	3
  3211  012E  0223               	subwf	_SW3+3,w
  3212  012F  1C03               	skipc
  3213  0130  293F               	goto	i1l1624
  3214                           
  3215                           ;mcc_generated_files/tmr2.c: 440:                     if (SW3.FallCompareFlg == 0) {
  3216  0131  0825               	movf	_SW3+5,w
  3217  0132  1D03               	btfss	3,2
  3218  0133  293A               	goto	i1l319
  3219                           
  3220                           ;mcc_generated_files/tmr2.c: 445:                         SW3.ChattaState = RISING;
  3221  0134  01A2               	clrf	_SW3+2
  3222                           
  3223                           ;mcc_generated_files/tmr2.c: 447:                         SW3.CheckCount = 0;
  3224  0135  01A3               	clrf	_SW3+3
  3225                           
  3226                           ;mcc_generated_files/tmr2.c: 452:                         SW3.SWCount = 0;
  3227  0136  01A7               	clrf	_SW3+7
  3228                           
  3229                           ;mcc_generated_files/tmr2.c: 454:                         SW3.State = 0;
  3230  0137  01A6               	clrf	_SW3+6
  3231                           
  3232                           ;mcc_generated_files/tmr2.c: 456:                         SW3.IntFlg = 0;
  3233  0138  01A0               	clrf	_SW3
  3234                           
  3235                           ;mcc_generated_files/tmr2.c: 458:                     } else {
  3236  0139  0008               	return
  3237  013A                     i1l319:	
  3238                           
  3239                           ;mcc_generated_files/tmr2.c: 463:                         SW3.ChattaState = ONGOING;
  3240  013A  01A2               	clrf	_SW3+2
  3241  013B  0AA2               	incf	_SW3+2,f
  3242                           
  3243                           ;mcc_generated_files/tmr2.c: 465:                         SW3.CheckCount = 0;
  3244  013C  01A3               	clrf	_SW3+3
  3245                           
  3246                           ;mcc_generated_files/tmr2.c: 467:                         SW3.FallCompareFlg = 0;
  3247  013D  01A5               	clrf	_SW3+5
  3248  013E  0008               	return
  3249  013F                     i1l1624:	
  3250                           
  3251                           ;mcc_generated_files/tmr2.c: 474:                     SW3.FallCompareFlg |= SW3.ReadValu
      +                          e;
  3252  013F  0821               	movf	_SW3+1,w
  3253  0140  00F9               	movwf	??_TMR2_DefaultInterruptHandler
  3254  0141  0879               	movf	??_TMR2_DefaultInterruptHandler,w
  3255  0142  04A5               	iorwf	_SW3+5,f
  3256                           
  3257                           ;mcc_generated_files/tmr2.c: 476:                     SW3.CheckCount++;
  3258  0143  3001               	movlw	1
  3259  0144  00F9               	movwf	??_TMR2_DefaultInterruptHandler
  3260  0145  0879               	movf	??_TMR2_DefaultInterruptHandler,w
  3261  0146  07A3               	addwf	_SW3+3,f
  3262  0147  0008               	return
  3263  0148                     i1l1628:	
  3264  0148  0822               	movf	_SW3+2,w
  3265  0149  00F9               	movwf	??_TMR2_DefaultInterruptHandler
  3266  014A  01FA               	clrf	??_TMR2_DefaultInterruptHandler+1
  3267                           
  3268                           ; Switch on 2 bytes has been partitioned into a top level switch of size 1, and 1 sub-sw
      +                          itches
  3269                           ; Switch size 1, requested type "simple"
  3270                           ; Number of cases is 1, Range of values is 0 to 0
  3271                           ; switch strategies available:
  3272                           ; Name         Instructions Cycles
  3273                           ; simple_byte            4     3 (average)
  3274                           ; direct_byte            8     6 (fixed)
  3275                           ; jumptable            260     6 (fixed)
  3276                           ;	Chosen strategy is simple_byte
  3277  014B  087A               	movf	??_TMR2_DefaultInterruptHandler+1,w
  3278  014C  3A00               	xorlw	0	; case 0
  3279  014D  1903               	skipnz
  3280  014E  2950               	goto	i1l2038
  3281  014F  295B               	goto	i1l322
  3282  0150                     i1l2038:	
  3283                           
  3284                           ; Switch size 1, requested type "simple"
  3285                           ; Number of cases is 3, Range of values is 0 to 2
  3286                           ; switch strategies available:
  3287                           ; Name         Instructions Cycles
  3288                           ; simple_byte           10     6 (average)
  3289                           ; direct_byte           12     6 (fixed)
  3290                           ; jumptable            260     6 (fixed)
  3291                           ;	Chosen strategy is simple_byte
  3292  0150  0879               	movf	??_TMR2_DefaultInterruptHandler,w
  3293  0151  3A00               	xorlw	0	; case 0
  3294  0152  1903               	skipnz
  3295  0153  2901               	goto	i1l1596
  3296  0154  3A01               	xorlw	1	; case 1
  3297  0155  1903               	skipnz
  3298  0156  291D               	goto	i1l1610
  3299  0157  3A03               	xorlw	3	; case 2
  3300  0158  1903               	skipnz
  3301  0159  2929               	goto	i1l1614
  3302  015A  295B               	goto	i1l322
  3303  015B                     i1l322:	
  3304  015B  0008               	return
  3305  015C                     __end_of_TMR2_DefaultInterruptHandler:	
  3306                           
  3307                           	psect	text19
  3308  0251                     __ptext19:	
  3309 ;; *************** function _TMR1_ISR *****************
  3310 ;; Defined at:
  3311 ;;		line 148 in file "mcc_generated_files/tmr1.c"
  3312 ;; Parameters:    Size  Location     Type
  3313 ;;		None
  3314 ;; Auto vars:     Size  Location     Type
  3315 ;;		None
  3316 ;; Return value:  Size  Location     Type
  3317 ;;                  1    wreg      void 
  3318 ;; Registers used:
  3319 ;;		wreg, status,2, status,0, pclath, cstack
  3320 ;; Tracked objects:
  3321 ;;		On entry : 0/0
  3322 ;;		On exit  : 0/0
  3323 ;;		Unchanged: 0/0
  3324 ;; Data sizes:     COMMON   BANK0   BANK1   BANK2   BANK3   BANK4
  3325 ;;      Params:         0       0       0       0       0       0
  3326 ;;      Locals:         0       0       0       0       0       0
  3327 ;;      Temps:          0       0       0       0       0       0
  3328 ;;      Totals:         0       0       0       0       0       0
  3329 ;;Total ram usage:        0 bytes
  3330 ;; Hardware stack levels used:    1
  3331 ;; Hardware stack levels required when called:    2
  3332 ;; This function calls:
  3333 ;;		_TMR1_CallBack
  3334 ;;		_TMR1_WriteTimer
  3335 ;; This function is called by:
  3336 ;;		_INTERRUPT_InterruptManager
  3337 ;; This function uses a non-reentrant model
  3338 ;;
  3339                           
  3340                           
  3341                           ;psect for function _TMR1_ISR
  3342  0251                     _TMR1_ISR:	
  3343                           
  3344                           ;mcc_generated_files/tmr1.c: 151:     PIR1bits.TMR1IF = 0;
  3345                           
  3346                           ;incstack = 0
  3347                           ; Regs used in _TMR1_ISR: [wreg+status,2+status,0+pclath+cstack]
  3348  0251  0020               	movlb	0	; select bank0
  3349  0252  1011               	bcf	17,0	;volatile
  3350                           
  3351                           ;mcc_generated_files/tmr1.c: 152:     TMR1_WriteTimer(timer1ReloadVal);
  3352  0253  0871               	movf	_timer1ReloadVal+1,w	;volatile
  3353  0254  00FA               	movwf	TMR1_WriteTimer@timerVal+1
  3354  0255  0870               	movf	_timer1ReloadVal,w	;volatile
  3355  0256  00F9               	movwf	TMR1_WriteTimer@timerVal
  3356  0257  3182  2235  3182   	fcall	_TMR1_WriteTimer
  3357                           
  3358                           ;mcc_generated_files/tmr1.c: 156:     TMR1_CallBack();
  3359  025A  3182  2280         	fcall	_TMR1_CallBack
  3360  025C  0008               	return
  3361  025D                     __end_of_TMR1_ISR:	
  3362                           
  3363                           	psect	text20
  3364  0235                     __ptext20:	
  3365 ;; *************** function _TMR1_WriteTimer *****************
  3366 ;; Defined at:
  3367 ;;		line 118 in file "mcc_generated_files/tmr1.c"
  3368 ;; Parameters:    Size  Location     Type
  3369 ;;  timerVal        2    0[COMMON] unsigned short 
  3370 ;; Auto vars:     Size  Location     Type
  3371 ;;		None
  3372 ;; Return value:  Size  Location     Type
  3373 ;;                  1    wreg      void 
  3374 ;; Registers used:
  3375 ;;		wreg, status,2
  3376 ;; Tracked objects:
  3377 ;;		On entry : 0/0
  3378 ;;		On exit  : 0/0
  3379 ;;		Unchanged: 0/0
  3380 ;; Data sizes:     COMMON   BANK0   BANK1   BANK2   BANK3   BANK4
  3381 ;;      Params:         2       0       0       0       0       0
  3382 ;;      Locals:         0       0       0       0       0       0
  3383 ;;      Temps:          0       0       0       0       0       0
  3384 ;;      Totals:         2       0       0       0       0       0
  3385 ;;Total ram usage:        2 bytes
  3386 ;; Hardware stack levels used:    1
  3387 ;; This function calls:
  3388 ;;		Nothing
  3389 ;; This function is called by:
  3390 ;;		_TMR1_ISR
  3391 ;;		_TMR1_Reload
  3392 ;; This function uses a non-reentrant model
  3393 ;;
  3394                           
  3395                           
  3396                           ;psect for function _TMR1_WriteTimer
  3397  0235                     _TMR1_WriteTimer:	
  3398                           
  3399                           ;mcc_generated_files/tmr1.c: 119:     if (T1CONbits.nT1SYNC == 1) {
  3400                           
  3401                           ;incstack = 0
  3402                           ; Regs used in _TMR1_WriteTimer: [wreg+status,2]
  3403  0235  0020               	movlb	0	; select bank0
  3404  0236  1D18               	btfss	24,2	;volatile
  3405  0237  2A3F               	goto	i1l1740
  3406                           
  3407                           ;mcc_generated_files/tmr1.c: 121:         T1CONbits.TMR1ON = 0;
  3408  0238  1018               	bcf	24,0	;volatile
  3409                           
  3410                           ;mcc_generated_files/tmr1.c: 124:         TMR1H = (timerVal >> 8);
  3411  0239  087A               	movf	TMR1_WriteTimer@timerVal+1,w
  3412  023A  0097               	movwf	23	;volatile
  3413                           
  3414                           ;mcc_generated_files/tmr1.c: 125:         TMR1L = timerVal;
  3415  023B  0879               	movf	TMR1_WriteTimer@timerVal,w
  3416  023C  0096               	movwf	22	;volatile
  3417                           
  3418                           ;mcc_generated_files/tmr1.c: 128:         T1CONbits.TMR1ON = 1;
  3419  023D  1418               	bsf	24,0	;volatile
  3420                           
  3421                           ;mcc_generated_files/tmr1.c: 129:     } else {
  3422  023E  0008               	return
  3423  023F                     i1l1740:	
  3424                           
  3425                           ;mcc_generated_files/tmr1.c: 131:         TMR1H = (timerVal >> 8);
  3426  023F  087A               	movf	TMR1_WriteTimer@timerVal+1,w
  3427  0240  0097               	movwf	23	;volatile
  3428                           
  3429                           ;mcc_generated_files/tmr1.c: 132:         TMR1L = timerVal;
  3430  0241  0879               	movf	TMR1_WriteTimer@timerVal,w
  3431  0242  0096               	movwf	22	;volatile
  3432  0243  0008               	return
  3433  0244                     __end_of_TMR1_WriteTimer:	
  3434                           
  3435                           	psect	text21
  3436  0280                     __ptext21:	
  3437 ;; *************** function _TMR1_CallBack *****************
  3438 ;; Defined at:
  3439 ;;		line 159 in file "mcc_generated_files/tmr1.c"
  3440 ;; Parameters:    Size  Location     Type
  3441 ;;		None
  3442 ;; Auto vars:     Size  Location     Type
  3443 ;;		None
  3444 ;; Return value:  Size  Location     Type
  3445 ;;                  1    wreg      void 
  3446 ;; Registers used:
  3447 ;;		wreg, status,2, status,0, pclath, cstack
  3448 ;; Tracked objects:
  3449 ;;		On entry : 0/0
  3450 ;;		On exit  : 0/0
  3451 ;;		Unchanged: 0/0
  3452 ;; Data sizes:     COMMON   BANK0   BANK1   BANK2   BANK3   BANK4
  3453 ;;      Params:         0       0       0       0       0       0
  3454 ;;      Locals:         0       0       0       0       0       0
  3455 ;;      Temps:          0       0       0       0       0       0
  3456 ;;      Totals:         0       0       0       0       0       0
  3457 ;;Total ram usage:        0 bytes
  3458 ;; Hardware stack levels used:    1
  3459 ;; Hardware stack levels required when called:    1
  3460 ;; This function calls:
  3461 ;;		Absolute function
  3462 ;;		_TMR1_DefaultInterruptHandler
  3463 ;; This function is called by:
  3464 ;;		_TMR1_ISR
  3465 ;; This function uses a non-reentrant model
  3466 ;;
  3467                           
  3468                           
  3469                           ;psect for function _TMR1_CallBack
  3470  0280                     _TMR1_CallBack:	
  3471                           
  3472                           ;mcc_generated_files/tmr1.c: 161:     if (TMR1_InterruptHandler) {
  3473                           
  3474                           ;incstack = 0
  3475                           ; Regs used in _TMR1_CallBack: [wreg+status,2+status,0+pclath+cstack]
  3476  0280  0020               	movlb	0	; select bank0
  3477  0281  083A               	movf	_TMR1_InterruptHandler,w
  3478  0282  043B               	iorwf	_TMR1_InterruptHandler+1,w
  3479  0283  1903               	btfsc	3,2
  3480  0284  0008               	return
  3481                           
  3482                           ;mcc_generated_files/tmr1.c: 162:         TMR1_InterruptHandler();
  3483  0285  083B               	movf	_TMR1_InterruptHandler+1,w
  3484  0286  008A               	movwf	10
  3485  0287  083A               	movf	_TMR1_InterruptHandler,w
  3486  0288  000A               	callw
  3487  0289  3182               	pagesel	$
  3488  028A  0008               	return
  3489  028B                     __end_of_TMR1_CallBack:	
  3490                           
  3491                           	psect	text22
  3492  02CB                     __ptext22:	
  3493 ;; *************** function _TMR1_DefaultInterruptHandler *****************
  3494 ;; Defined at:
  3495 ;;		line 170 in file "mcc_generated_files/tmr1.c"
  3496 ;; Parameters:    Size  Location     Type
  3497 ;;		None
  3498 ;; Auto vars:     Size  Location     Type
  3499 ;;		None
  3500 ;; Return value:  Size  Location     Type
  3501 ;;                  1    wreg      void 
  3502 ;; Registers used:
  3503 ;;		None
  3504 ;; Tracked objects:
  3505 ;;		On entry : 0/0
  3506 ;;		On exit  : 0/0
  3507 ;;		Unchanged: 0/0
  3508 ;; Data sizes:     COMMON   BANK0   BANK1   BANK2   BANK3   BANK4
  3509 ;;      Params:         0       0       0       0       0       0
  3510 ;;      Locals:         0       0       0       0       0       0
  3511 ;;      Temps:          0       0       0       0       0       0
  3512 ;;      Totals:         0       0       0       0       0       0
  3513 ;;Total ram usage:        0 bytes
  3514 ;; Hardware stack levels used:    1
  3515 ;; This function calls:
  3516 ;;		Nothing
  3517 ;; This function is called by:
  3518 ;;		_TMR1_Initialize
  3519 ;;		_TMR1_CallBack
  3520 ;; This function uses a non-reentrant model
  3521 ;;
  3522                           
  3523                           
  3524                           ;psect for function _TMR1_DefaultInterruptHandler
  3525  02CB                     _TMR1_DefaultInterruptHandler:	
  3526                           
  3527                           ;mcc_generated_files/tmr1.c: 174:     Timer500msFlag = 1;
  3528                           
  3529                           ;incstack = 0
  3530                           ; Regs used in _TMR1_DefaultInterruptHandler: []
  3531  02CB  01F8               	clrf	_Timer500msFlag
  3532  02CC  0AF8               	incf	_Timer500msFlag,f
  3533  02CD  0008               	return
  3534  02CE                     __end_of_TMR1_DefaultInterruptHandler:	
  3535                           
  3536                           	psect	text23
  3537  01F5                     __ptext23:	
  3538 ;; *************** function _PIN_MANAGER_IOC *****************
  3539 ;; Defined at:
  3540 ;;		line 127 in file "mcc_generated_files/pin_manager.c"
  3541 ;; Parameters:    Size  Location     Type
  3542 ;;		None
  3543 ;; Auto vars:     Size  Location     Type
  3544 ;;		None
  3545 ;; Return value:  Size  Location     Type
  3546 ;;                  1    wreg      void 
  3547 ;; Registers used:
  3548 ;;		wreg, status,2, status,0, pclath, cstack
  3549 ;; Tracked objects:
  3550 ;;		On entry : 0/0
  3551 ;;		On exit  : 0/0
  3552 ;;		Unchanged: 0/0
  3553 ;; Data sizes:     COMMON   BANK0   BANK1   BANK2   BANK3   BANK4
  3554 ;;      Params:         0       0       0       0       0       0
  3555 ;;      Locals:         0       0       0       0       0       0
  3556 ;;      Temps:          0       0       0       0       0       0
  3557 ;;      Totals:         0       0       0       0       0       0
  3558 ;;Total ram usage:        0 bytes
  3559 ;; Hardware stack levels used:    1
  3560 ;; Hardware stack levels required when called:    2
  3561 ;; This function calls:
  3562 ;;		_IOCBF0_ISR
  3563 ;;		_IOCBF1_ISR
  3564 ;;		_IOCBF2_ISR
  3565 ;; This function is called by:
  3566 ;;		_INTERRUPT_InterruptManager
  3567 ;; This function uses a non-reentrant model
  3568 ;;
  3569                           
  3570                           
  3571                           ;psect for function _PIN_MANAGER_IOC
  3572  01F5                     _PIN_MANAGER_IOC:	
  3573                           
  3574                           ;mcc_generated_files/pin_manager.c: 129:     if (IOCBFbits.IOCBF0 == 1) {
  3575                           
  3576                           ;incstack = 0
  3577                           ; Regs used in _PIN_MANAGER_IOC: [wreg+status,2+status,0+pclath+cstack]
  3578  01F5  0027               	movlb	7	; select bank7
  3579  01F6  1C16               	btfss	22,0	;volatile
  3580  01F7  29FB               	goto	i1l1758
  3581                           
  3582                           ;mcc_generated_files/pin_manager.c: 130:         IOCBF0_ISR();
  3583  01F8  3182  2269  3181   	fcall	_IOCBF0_ISR
  3584  01FB                     i1l1758:	
  3585                           
  3586                           ;mcc_generated_files/pin_manager.c: 133:     if (IOCBFbits.IOCBF1 == 1) {
  3587  01FB  0027               	movlb	7	; select bank7
  3588  01FC  1C96               	btfss	22,1	;volatile
  3589  01FD  2A01               	goto	i1l1762
  3590                           
  3591                           ;mcc_generated_files/pin_manager.c: 134:         IOCBF1_ISR();
  3592  01FE  3182  225D  3181   	fcall	_IOCBF1_ISR
  3593  0201                     i1l1762:	
  3594                           
  3595                           ;mcc_generated_files/pin_manager.c: 137:     if (IOCBFbits.IOCBF2 == 1) {
  3596  0201  0027               	movlb	7	; select bank7
  3597  0202  1D16               	btfss	22,2	;volatile
  3598  0203  0008               	return
  3599                           
  3600                           ;mcc_generated_files/pin_manager.c: 138:         IOCBF2_ISR();
  3601  0204  3182  2244         	fcall	_IOCBF2_ISR
  3602  0206  0008               	return
  3603  0207                     __end_of_PIN_MANAGER_IOC:	
  3604                           
  3605                           	psect	text24
  3606  0244                     __ptext24:	
  3607 ;; *************** function _IOCBF2_ISR *****************
  3608 ;; Defined at:
  3609 ;;		line 213 in file "mcc_generated_files/pin_manager.c"
  3610 ;; Parameters:    Size  Location     Type
  3611 ;;		None
  3612 ;; Auto vars:     Size  Location     Type
  3613 ;;		None
  3614 ;; Return value:  Size  Location     Type
  3615 ;;                  1    wreg      void 
  3616 ;; Registers used:
  3617 ;;		wreg, status,2, status,0, pclath, cstack
  3618 ;; Tracked objects:
  3619 ;;		On entry : 0/0
  3620 ;;		On exit  : 0/0
  3621 ;;		Unchanged: 0/0
  3622 ;; Data sizes:     COMMON   BANK0   BANK1   BANK2   BANK3   BANK4
  3623 ;;      Params:         0       0       0       0       0       0
  3624 ;;      Locals:         0       0       0       0       0       0
  3625 ;;      Temps:          0       0       0       0       0       0
  3626 ;;      Totals:         0       0       0       0       0       0
  3627 ;;Total ram usage:        0 bytes
  3628 ;; Hardware stack levels used:    1
  3629 ;; Hardware stack levels required when called:    1
  3630 ;; This function calls:
  3631 ;;		Absolute function
  3632 ;;		_IOCBF2_DefaultInterruptHandler
  3633 ;; This function is called by:
  3634 ;;		_PIN_MANAGER_IOC
  3635 ;; This function uses a non-reentrant model
  3636 ;;
  3637                           
  3638                           
  3639                           ;psect for function _IOCBF2_ISR
  3640  0244                     _IOCBF2_ISR:	
  3641                           
  3642                           ;mcc_generated_files/pin_manager.c: 218:     if (IOCBF2_InterruptHandler) {
  3643                           
  3644                           ;incstack = 0
  3645                           ; Regs used in _IOCBF2_ISR: [wreg+status,2+status,0+pclath+cstack]
  3646  0244  0020               	movlb	0	; select bank0
  3647  0245  083C               	movf	_IOCBF2_InterruptHandler,w
  3648  0246  043D               	iorwf	_IOCBF2_InterruptHandler+1,w
  3649  0247  1903               	btfsc	3,2
  3650  0248  2A4E               	goto	i1l1728
  3651                           
  3652                           ;mcc_generated_files/pin_manager.c: 219:         IOCBF2_InterruptHandler();
  3653  0249  083D               	movf	_IOCBF2_InterruptHandler+1,w
  3654  024A  008A               	movwf	10
  3655  024B  083C               	movf	_IOCBF2_InterruptHandler,w
  3656  024C  000A               	callw
  3657  024D  3182               	pagesel	$
  3658  024E                     i1l1728:	
  3659                           
  3660                           ;mcc_generated_files/pin_manager.c: 221:     IOCBFbits.IOCBF2 = 0;
  3661  024E  0027               	movlb	7	; select bank7
  3662  024F  1116               	bcf	22,2	;volatile
  3663  0250  0008               	return
  3664  0251                     __end_of_IOCBF2_ISR:	
  3665                           
  3666                           	psect	text25
  3667  02BF                     __ptext25:	
  3668 ;; *************** function _IOCBF2_DefaultInterruptHandler *****************
  3669 ;; Defined at:
  3670 ;;		line 234 in file "mcc_generated_files/pin_manager.c"
  3671 ;; Parameters:    Size  Location     Type
  3672 ;;		None
  3673 ;; Auto vars:     Size  Location     Type
  3674 ;;		None
  3675 ;; Return value:  Size  Location     Type
  3676 ;;                  1    wreg      void 
  3677 ;; Registers used:
  3678 ;;		None
  3679 ;; Tracked objects:
  3680 ;;		On entry : 0/0
  3681 ;;		On exit  : 0/0
  3682 ;;		Unchanged: 0/0
  3683 ;; Data sizes:     COMMON   BANK0   BANK1   BANK2   BANK3   BANK4
  3684 ;;      Params:         0       0       0       0       0       0
  3685 ;;      Locals:         0       0       0       0       0       0
  3686 ;;      Temps:          0       0       0       0       0       0
  3687 ;;      Totals:         0       0       0       0       0       0
  3688 ;;Total ram usage:        0 bytes
  3689 ;; Hardware stack levels used:    1
  3690 ;; This function calls:
  3691 ;;		Nothing
  3692 ;; This function is called by:
  3693 ;;		_PIN_MANAGER_Initialize
  3694 ;;		_IOCBF2_ISR
  3695 ;; This function uses a non-reentrant model
  3696 ;;
  3697                           
  3698                           
  3699                           ;psect for function _IOCBF2_DefaultInterruptHandler
  3700  02BF                     _IOCBF2_DefaultInterruptHandler:	
  3701                           
  3702                           ;mcc_generated_files/pin_manager.c: 240:     SW3.IntFlg = 1;
  3703                           
  3704                           ;incstack = 0
  3705                           ; Regs used in _IOCBF2_DefaultInterruptHandler: []
  3706  02BF  0020               	movlb	0	; select bank0
  3707  02C0  01A0               	clrf	_SW3
  3708  02C1  0AA0               	incf	_SW3,f
  3709  02C2  0008               	return
  3710  02C3                     __end_of_IOCBF2_DefaultInterruptHandler:	
  3711                           
  3712                           	psect	text26
  3713  025D                     __ptext26:	
  3714 ;; *************** function _IOCBF1_ISR *****************
  3715 ;; Defined at:
  3716 ;;		line 179 in file "mcc_generated_files/pin_manager.c"
  3717 ;; Parameters:    Size  Location     Type
  3718 ;;		None
  3719 ;; Auto vars:     Size  Location     Type
  3720 ;;		None
  3721 ;; Return value:  Size  Location     Type
  3722 ;;                  1    wreg      void 
  3723 ;; Registers used:
  3724 ;;		wreg, status,2, status,0, pclath, cstack
  3725 ;; Tracked objects:
  3726 ;;		On entry : 0/0
  3727 ;;		On exit  : 0/0
  3728 ;;		Unchanged: 0/0
  3729 ;; Data sizes:     COMMON   BANK0   BANK1   BANK2   BANK3   BANK4
  3730 ;;      Params:         0       0       0       0       0       0
  3731 ;;      Locals:         0       0       0       0       0       0
  3732 ;;      Temps:          0       0       0       0       0       0
  3733 ;;      Totals:         0       0       0       0       0       0
  3734 ;;Total ram usage:        0 bytes
  3735 ;; Hardware stack levels used:    1
  3736 ;; Hardware stack levels required when called:    1
  3737 ;; This function calls:
  3738 ;;		Absolute function
  3739 ;;		_IOCBF1_DefaultInterruptHandler
  3740 ;; This function is called by:
  3741 ;;		_PIN_MANAGER_IOC
  3742 ;; This function uses a non-reentrant model
  3743 ;;
  3744                           
  3745                           
  3746                           ;psect for function _IOCBF1_ISR
  3747  025D                     _IOCBF1_ISR:	
  3748                           
  3749                           ;mcc_generated_files/pin_manager.c: 184:     if (IOCBF1_InterruptHandler) {
  3750                           
  3751                           ;incstack = 0
  3752                           ; Regs used in _IOCBF1_ISR: [wreg+status,2+status,0+pclath+cstack]
  3753  025D  0872               	movf	_IOCBF1_InterruptHandler,w
  3754  025E  0473               	iorwf	_IOCBF1_InterruptHandler+1,w
  3755  025F  1903               	btfsc	3,2
  3756  0260  2A66               	goto	i1l1722
  3757                           
  3758                           ;mcc_generated_files/pin_manager.c: 185:         IOCBF1_InterruptHandler();
  3759  0261  0873               	movf	_IOCBF1_InterruptHandler+1,w
  3760  0262  008A               	movwf	10
  3761  0263  0872               	movf	_IOCBF1_InterruptHandler,w
  3762  0264  000A               	callw
  3763  0265  3182               	pagesel	$
  3764  0266                     i1l1722:	
  3765                           
  3766                           ;mcc_generated_files/pin_manager.c: 187:     IOCBFbits.IOCBF1 = 0;
  3767  0266  0027               	movlb	7	; select bank7
  3768  0267  1096               	bcf	22,1	;volatile
  3769  0268  0008               	return
  3770  0269                     __end_of_IOCBF1_ISR:	
  3771                           
  3772                           	psect	text27
  3773  02C3                     __ptext27:	
  3774 ;; *************** function _IOCBF1_DefaultInterruptHandler *****************
  3775 ;; Defined at:
  3776 ;;		line 200 in file "mcc_generated_files/pin_manager.c"
  3777 ;; Parameters:    Size  Location     Type
  3778 ;;		None
  3779 ;; Auto vars:     Size  Location     Type
  3780 ;;		None
  3781 ;; Return value:  Size  Location     Type
  3782 ;;                  1    wreg      void 
  3783 ;; Registers used:
  3784 ;;		None
  3785 ;; Tracked objects:
  3786 ;;		On entry : 0/0
  3787 ;;		On exit  : 0/0
  3788 ;;		Unchanged: 0/0
  3789 ;; Data sizes:     COMMON   BANK0   BANK1   BANK2   BANK3   BANK4
  3790 ;;      Params:         0       0       0       0       0       0
  3791 ;;      Locals:         0       0       0       0       0       0
  3792 ;;      Temps:          0       0       0       0       0       0
  3793 ;;      Totals:         0       0       0       0       0       0
  3794 ;;Total ram usage:        0 bytes
  3795 ;; Hardware stack levels used:    1
  3796 ;; This function calls:
  3797 ;;		Nothing
  3798 ;; This function is called by:
  3799 ;;		_PIN_MANAGER_Initialize
  3800 ;;		_IOCBF1_ISR
  3801 ;; This function uses a non-reentrant model
  3802 ;;
  3803                           
  3804                           
  3805                           ;psect for function _IOCBF1_DefaultInterruptHandler
  3806  02C3                     _IOCBF1_DefaultInterruptHandler:	
  3807                           
  3808                           ;mcc_generated_files/pin_manager.c: 206:     SW2.IntFlg = 1;
  3809                           
  3810                           ;incstack = 0
  3811                           ; Regs used in _IOCBF1_DefaultInterruptHandler: []
  3812  02C3  0020               	movlb	0	; select bank0
  3813  02C4  01A8               	clrf	_SW2
  3814  02C5  0AA8               	incf	_SW2,f
  3815  02C6  0008               	return
  3816  02C7                     __end_of_IOCBF1_DefaultInterruptHandler:	
  3817                           
  3818                           	psect	text28
  3819  0269                     __ptext28:	
  3820 ;; *************** function _IOCBF0_ISR *****************
  3821 ;; Defined at:
  3822 ;;		line 145 in file "mcc_generated_files/pin_manager.c"
  3823 ;; Parameters:    Size  Location     Type
  3824 ;;		None
  3825 ;; Auto vars:     Size  Location     Type
  3826 ;;		None
  3827 ;; Return value:  Size  Location     Type
  3828 ;;                  1    wreg      void 
  3829 ;; Registers used:
  3830 ;;		wreg, status,2, status,0, pclath, cstack
  3831 ;; Tracked objects:
  3832 ;;		On entry : 0/0
  3833 ;;		On exit  : 0/0
  3834 ;;		Unchanged: 0/0
  3835 ;; Data sizes:     COMMON   BANK0   BANK1   BANK2   BANK3   BANK4
  3836 ;;      Params:         0       0       0       0       0       0
  3837 ;;      Locals:         0       0       0       0       0       0
  3838 ;;      Temps:          0       0       0       0       0       0
  3839 ;;      Totals:         0       0       0       0       0       0
  3840 ;;Total ram usage:        0 bytes
  3841 ;; Hardware stack levels used:    1
  3842 ;; Hardware stack levels required when called:    1
  3843 ;; This function calls:
  3844 ;;		Absolute function
  3845 ;;		_IOCBF0_DefaultInterruptHandler
  3846 ;; This function is called by:
  3847 ;;		_PIN_MANAGER_IOC
  3848 ;; This function uses a non-reentrant model
  3849 ;;
  3850                           
  3851                           
  3852                           ;psect for function _IOCBF0_ISR
  3853  0269                     _IOCBF0_ISR:	
  3854                           
  3855                           ;mcc_generated_files/pin_manager.c: 150:     if (IOCBF0_InterruptHandler) {
  3856                           
  3857                           ;incstack = 0
  3858                           ; Regs used in _IOCBF0_ISR: [wreg+status,2+status,0+pclath+cstack]
  3859  0269  0874               	movf	_IOCBF0_InterruptHandler,w
  3860  026A  0475               	iorwf	_IOCBF0_InterruptHandler+1,w
  3861  026B  1903               	btfsc	3,2
  3862  026C  2A72               	goto	i1l1716
  3863                           
  3864                           ;mcc_generated_files/pin_manager.c: 151:         IOCBF0_InterruptHandler();
  3865  026D  0875               	movf	_IOCBF0_InterruptHandler+1,w
  3866  026E  008A               	movwf	10
  3867  026F  0874               	movf	_IOCBF0_InterruptHandler,w
  3868  0270  000A               	callw
  3869  0271  3182               	pagesel	$
  3870  0272                     i1l1716:	
  3871                           
  3872                           ;mcc_generated_files/pin_manager.c: 153:     IOCBFbits.IOCBF0 = 0;
  3873  0272  0027               	movlb	7	; select bank7
  3874  0273  1016               	bcf	22,0	;volatile
  3875  0274  0008               	return
  3876  0275                     __end_of_IOCBF0_ISR:	
  3877                           
  3878                           	psect	text29
  3879  02C7                     __ptext29:	
  3880 ;; *************** function _IOCBF0_DefaultInterruptHandler *****************
  3881 ;; Defined at:
  3882 ;;		line 166 in file "mcc_generated_files/pin_manager.c"
  3883 ;; Parameters:    Size  Location     Type
  3884 ;;		None
  3885 ;; Auto vars:     Size  Location     Type
  3886 ;;		None
  3887 ;; Return value:  Size  Location     Type
  3888 ;;                  1    wreg      void 
  3889 ;; Registers used:
  3890 ;;		None
  3891 ;; Tracked objects:
  3892 ;;		On entry : 0/0
  3893 ;;		On exit  : 0/0
  3894 ;;		Unchanged: 0/0
  3895 ;; Data sizes:     COMMON   BANK0   BANK1   BANK2   BANK3   BANK4
  3896 ;;      Params:         0       0       0       0       0       0
  3897 ;;      Locals:         0       0       0       0       0       0
  3898 ;;      Temps:          0       0       0       0       0       0
  3899 ;;      Totals:         0       0       0       0       0       0
  3900 ;;Total ram usage:        0 bytes
  3901 ;; Hardware stack levels used:    1
  3902 ;; This function calls:
  3903 ;;		Nothing
  3904 ;; This function is called by:
  3905 ;;		_PIN_MANAGER_Initialize
  3906 ;;		_IOCBF0_ISR
  3907 ;; This function uses a non-reentrant model
  3908 ;;
  3909                           
  3910                           
  3911                           ;psect for function _IOCBF0_DefaultInterruptHandler
  3912  02C7                     _IOCBF0_DefaultInterruptHandler:	
  3913                           
  3914                           ;mcc_generated_files/pin_manager.c: 172:     SW1.IntFlg = 1;
  3915                           
  3916                           ;incstack = 0
  3917                           ; Regs used in _IOCBF0_DefaultInterruptHandler: []
  3918  02C7  0020               	movlb	0	; select bank0
  3919  02C8  01B0               	clrf	_SW1
  3920  02C9  0AB0               	incf	_SW1,f
  3921  02CA  0008               	return
  3922  02CB                     __end_of_IOCBF0_DefaultInterruptHandler:	
  3923  007E                     btemp	set	126	;btemp
  3924  007E                     int$flags	set	126
  3925  007E                     wtemp0	set	126


Data Sizes:
    Strings     0
    Constant    0
    Data        24
    BSS         3
    Persistent  44
    Stack       0

Auto Spaces:
    Space          Size  Autos    Used
    COMMON           14      2      11
    BANK0            80      2      32
    BANK1            80      0       0
    BANK2            80      0       0
    BANK3            80      0       0
    BANK4            48      0       0

Pointer List with Targets:

    TMR2_SetInterruptHandler@InterruptHandler	PTR FTN()void  size(2) Largest target is 1
		 -> TMR2_DefaultInterruptHandler(), 

    TMR2_InterruptHandler	PTR FTN()void  size(2) Largest target is 1
		 -> TMR2_DefaultInterruptHandler(), Absolute function(), 

    TMR1_SetInterruptHandler@InterruptHandler	PTR FTN()void  size(2) Largest target is 1
		 -> TMR1_DefaultInterruptHandler(), 

    TMR1_InterruptHandler	PTR FTN()void  size(2) Largest target is 1
		 -> TMR1_DefaultInterruptHandler(), Absolute function(), 

    IOCBF2_SetInterruptHandler@InterruptHandler	PTR FTN()void  size(2) Largest target is 1
		 -> IOCBF2_DefaultInterruptHandler(), 

    IOCBF2_InterruptHandler	PTR FTN()void  size(2) Largest target is 1
		 -> Absolute function(), IOCBF2_DefaultInterruptHandler(), 

    IOCBF1_SetInterruptHandler@InterruptHandler	PTR FTN()void  size(2) Largest target is 1
		 -> IOCBF1_DefaultInterruptHandler(), 

    IOCBF1_InterruptHandler	PTR FTN()void  size(2) Largest target is 1
		 -> Absolute function(), IOCBF1_DefaultInterruptHandler(), 

    IOCBF0_SetInterruptHandler@InterruptHandler	PTR FTN()void  size(2) Largest target is 1
		 -> IOCBF0_DefaultInterruptHandler(), 

    IOCBF0_InterruptHandler	PTR FTN()void  size(2) Largest target is 1
		 -> Absolute function(), IOCBF0_DefaultInterruptHandler(), 


Critical Paths under _main in COMMON

    None.

Critical Paths under _INTERRUPT_InterruptManager in COMMON

    _TMR2_CallBack->_TMR2_DefaultInterruptHandler
    _TMR1_ISR->_TMR1_WriteTimer

Critical Paths under _main in BANK0

    _TMR2_Initialize->_TMR2_SetInterruptHandler
    _TMR1_Initialize->_TMR1_SetInterruptHandler
    _PIN_MANAGER_Initialize->_IOCBF0_SetInterruptHandler
    _PIN_MANAGER_Initialize->_IOCBF1_SetInterruptHandler
    _PIN_MANAGER_Initialize->_IOCBF2_SetInterruptHandler

Critical Paths under _INTERRUPT_InterruptManager in BANK0

    None.

Critical Paths under _main in BANK1

    None.

Critical Paths under _INTERRUPT_InterruptManager in BANK1

    None.

Critical Paths under _main in BANK2

    None.

Critical Paths under _INTERRUPT_InterruptManager in BANK2

    None.

Critical Paths under _main in BANK3

    None.

Critical Paths under _INTERRUPT_InterruptManager in BANK3

    None.

Critical Paths under _main in BANK4

    None.

Critical Paths under _INTERRUPT_InterruptManager in BANK4

    None.

Call Graph Tables:

 ---------------------------------------------------------------------------------
 (Depth) Function   	        Calls       Base Space   Used Autos Params    Refs
 ---------------------------------------------------------------------------------
 (0) _main                                                 0     0      0     605
                              _Chata
                       _InputProcess
                      _OutputProcess
                  _SYSTEM_Initialize
 ---------------------------------------------------------------------------------
 (1) _SYSTEM_Initialize                                    0     0      0     605
              _OSCILLATOR_Initialize
             _PIN_MANAGER_Initialize
                    _TMR1_Initialize
                    _TMR2_Initialize
                     _WDT_Initialize
 ---------------------------------------------------------------------------------
 (2) _WDT_Initialize                                       0     0      0       0
 ---------------------------------------------------------------------------------
 (2) _TMR2_Initialize                                      0     0      0     121
           _TMR2_SetInterruptHandler
 ---------------------------------------------------------------------------------
 (3) _TMR2_SetInterruptHandler                             2     0      2     121
                                              0 BANK0      2     0      2
 ---------------------------------------------------------------------------------
 (2) _TMR1_Initialize                                      0     0      0     121
           _TMR1_SetInterruptHandler
 ---------------------------------------------------------------------------------
 (3) _TMR1_SetInterruptHandler                             2     0      2     121
                                              0 BANK0      2     0      2
 ---------------------------------------------------------------------------------
 (2) _PIN_MANAGER_Initialize                               0     0      0     363
         _IOCBF0_SetInterruptHandler
         _IOCBF1_SetInterruptHandler
         _IOCBF2_SetInterruptHandler
 ---------------------------------------------------------------------------------
 (3) _IOCBF2_SetInterruptHandler                           2     0      2     121
                                              0 BANK0      2     0      2
 ---------------------------------------------------------------------------------
 (3) _IOCBF1_SetInterruptHandler                           2     0      2     121
                                              0 BANK0      2     0      2
 ---------------------------------------------------------------------------------
 (3) _IOCBF0_SetInterruptHandler                           2     0      2     121
                                              0 BANK0      2     0      2
 ---------------------------------------------------------------------------------
 (2) _OSCILLATOR_Initialize                                0     0      0       0
 ---------------------------------------------------------------------------------
 (1) _OutputProcess                                        0     0      0       0
 ---------------------------------------------------------------------------------
 (1) _InputProcess                                         0     0      0       0
 ---------------------------------------------------------------------------------
 (1) _Chata                                                0     0      0       0
 ---------------------------------------------------------------------------------
 Estimated maximum stack depth 3
 ---------------------------------------------------------------------------------
 (Depth) Function   	        Calls       Base Space   Used Autos Params    Refs
 ---------------------------------------------------------------------------------
 (4) _INTERRUPT_InterruptManager                           0     0      0     240
                    _PIN_MANAGER_IOC
                           _TMR1_ISR
                           _TMR2_ISR
 ---------------------------------------------------------------------------------
 (5) _TMR2_ISR                                             0     0      0       0
                      _TMR2_CallBack
 ---------------------------------------------------------------------------------
 (6) _TMR2_CallBack                                        0     0      0       0
                   Absolute function *
       _TMR2_DefaultInterruptHandler *
 ---------------------------------------------------------------------------------
 (7) _TMR2_DefaultInterruptHandler                         2     2      0       0
                                              0 COMMON     2     2      0
 ---------------------------------------------------------------------------------
 (5) _TMR1_ISR                                             0     0      0     240
                      _TMR1_CallBack
                    _TMR1_WriteTimer
 ---------------------------------------------------------------------------------
 (6) _TMR1_WriteTimer                                      2     0      2     240
                                              0 COMMON     2     0      2
 ---------------------------------------------------------------------------------
 (6) _TMR1_CallBack                                        0     0      0       0
                   Absolute function *
       _TMR1_DefaultInterruptHandler *
 ---------------------------------------------------------------------------------
 (7) _TMR1_DefaultInterruptHandler                         0     0      0       0
 ---------------------------------------------------------------------------------
 (5) _PIN_MANAGER_IOC                                      0     0      0       0
                         _IOCBF0_ISR
                         _IOCBF1_ISR
                         _IOCBF2_ISR
 ---------------------------------------------------------------------------------
 (6) _IOCBF2_ISR                                           0     0      0       0
                   Absolute function *
     _IOCBF2_DefaultInterruptHandler *
 ---------------------------------------------------------------------------------
 (7) _IOCBF2_DefaultInterruptHandler                       0     0      0       0
 ---------------------------------------------------------------------------------
 (6) _IOCBF1_ISR                                           0     0      0       0
                   Absolute function *
     _IOCBF1_DefaultInterruptHandler *
 ---------------------------------------------------------------------------------
 (7) _IOCBF1_DefaultInterruptHandler                       0     0      0       0
 ---------------------------------------------------------------------------------
 (6) _IOCBF0_ISR                                           0     0      0       0
                   Absolute function *
     _IOCBF0_DefaultInterruptHandler *
 ---------------------------------------------------------------------------------
 (7) _IOCBF0_DefaultInterruptHandler                       0     0      0       0
 ---------------------------------------------------------------------------------
 (7) Absolute function(Fake)                               0     0      0       0
 ---------------------------------------------------------------------------------
 Estimated maximum stack depth 7
 ---------------------------------------------------------------------------------

 Call Graph Graphs:

 _main (ROOT)
   _Chata
   _InputProcess
   _OutputProcess
   _SYSTEM_Initialize
     _OSCILLATOR_Initialize
     _PIN_MANAGER_Initialize
       _IOCBF0_SetInterruptHandler
       _IOCBF1_SetInterruptHandler
       _IOCBF2_SetInterruptHandler
     _TMR1_Initialize
       _TMR1_SetInterruptHandler
     _TMR2_Initialize
       _TMR2_SetInterruptHandler
     _WDT_Initialize

 _INTERRUPT_InterruptManager (ROOT)
   _PIN_MANAGER_IOC
     _IOCBF0_ISR
       Absolute function(Fake) *
       _IOCBF0_DefaultInterruptHandler *
     _IOCBF1_ISR
       Absolute function(Fake) *
       _IOCBF1_DefaultInterruptHandler *
     _IOCBF2_ISR
       Absolute function(Fake) *
       _IOCBF2_DefaultInterruptHandler *
   _TMR1_ISR
     _TMR1_CallBack
       Absolute function(Fake) *
       _TMR1_DefaultInterruptHandler *
     _TMR1_WriteTimer
   _TMR2_ISR
     _TMR2_CallBack
       Absolute function(Fake) *
       _TMR2_DefaultInterruptHandler *

 Address spaces:
Name               Size   Autos  Total    Cost      Usage
BIGRAM             170      0       0       0        0.0%
EEDATA             100      0       0       0        0.0%
NULL                 0      0       0       0        0.0%
CODE                 0      0       0       0        0.0%
BITCOMMON            E      0       0       1        0.0%
BITSFR0              0      0       0       1        0.0%
SFR0                 0      0       0       1        0.0%
COMMON               E      2       B       2       78.6%
BITSFR1              0      0       0       2        0.0%
SFR1                 0      0       0       2        0.0%
BITSFR2              0      0       0       3        0.0%
SFR2                 0      0       0       3        0.0%
STACK                0      0       0       3        0.0%
BITSFR3              0      0       0       4        0.0%
SFR3                 0      0       0       4        0.0%
ABS                  0      0      2B       4        0.0%
BITBANK0            50      0       0       5        0.0%
BITSFR4              0      0       0       5        0.0%
SFR4                 0      0       0       5        0.0%
BANK0               50      2      20       6       40.0%
BITSFR5              0      0       0       6        0.0%
SFR5                 0      0       0       6        0.0%
BITBANK1            50      0       0       7        0.0%
BITSFR6              0      0       0       7        0.0%
SFR6                 0      0       0       7        0.0%
BANK1               50      0       0       8        0.0%
BITSFR7              0      0       0       8        0.0%
SFR7                 0      0       0       8        0.0%
BITBANK2            50      0       0       9        0.0%
BITSFR8              0      0       0       9        0.0%
SFR8                 0      0       0       9        0.0%
BANK2               50      0       0      10        0.0%
BITSFR9              0      0       0      10        0.0%
SFR9                 0      0       0      10        0.0%
BITBANK3            50      0       0      11        0.0%
BITSFR10             0      0       0      11        0.0%
SFR10                0      0       0      11        0.0%
BANK3               50      0       0      12        0.0%
BITSFR11             0      0       0      12        0.0%
SFR11                0      0       0      12        0.0%
BITBANK4            30      0       0      13        0.0%
BITSFR12             0      0       0      13        0.0%
SFR12                0      0       0      13        0.0%
BANK4               30      0       0      14        0.0%
BITSFR13             0      0       0      14        0.0%
SFR13                0      0       0      14        0.0%
BITSFR14             0      0       0      15        0.0%
SFR14                0      0       0      15        0.0%
DATA                 0      0      2B      15        0.0%
BITSFR15             0      0       0      16        0.0%
SFR15                0      0       0      16        0.0%
BITSFR16             0      0       0      17        0.0%
SFR16                0      0       0      17        0.0%
BITSFR17             0      0       0      18        0.0%
SFR17                0      0       0      18        0.0%
BITSFR18             0      0       0      19        0.0%
SFR18                0      0       0      19        0.0%
BITSFR19             0      0       0      20        0.0%
SFR19                0      0       0      20        0.0%
BITSFR20             0      0       0      21        0.0%
SFR20                0      0       0      21        0.0%
BITSFR21             0      0       0      22        0.0%
SFR21                0      0       0      22        0.0%
BITSFR22             0      0       0      23        0.0%
SFR22                0      0       0      23        0.0%
BITSFR23             0      0       0      24        0.0%
SFR23                0      0       0      24        0.0%
BITSFR24             0      0       0      25        0.0%
SFR24                0      0       0      25        0.0%
BITSFR25             0      0       0      26        0.0%
SFR25                0      0       0      26        0.0%
BITSFR26             0      0       0      27        0.0%
SFR26                0      0       0      27        0.0%
BITSFR27             0      0       0      28        0.0%
SFR27                0      0       0      28        0.0%
BITSFR28             0      0       0      29        0.0%
SFR28                0      0       0      29        0.0%
BITSFR29             0      0       0      30        0.0%
SFR29                0      0       0      30        0.0%
BITSFR30             0      0       0      31        0.0%
SFR30                0      0       0      31        0.0%
BITSFR31             0      0       0      32        0.0%
SFR31                0      0       0      32        0.0%


Microchip Technology PIC Macro Assembler V2.05 build -831301201 
Symbol Table                                                                                   Fri Jul 10 16:28:29 2020

          __end_of_TMR2_SetInterruptHandler 029E                                 __CFG_CP$OFF 0000  
                                       l355 019E                                         l357 01A7  
                                       l349 021C                                         l359 01B0  
                                       _PR2 001B                                __CFG_CPD$OFF 0000  
                                       u700 0214                                         _SW1 0030  
                                       _SW2 0028                                         _SW3 0020  
                           _timer1ReloadVal 0070                               _OutputProcess 0207  
                           _TMR2_Initialize 01E3                                __CFG_BORV$LO 0000  
                              __CFG_IESO$ON 0000          __end_of_IOCBF1_SetInterruptHandler 02B0  
                _IOCBF1_SetInterruptHandler 02AA                                __CFG_LVP$OFF 0000  
                                      l1784 01A9                                        _LATA 010C  
                                      _LATB 010D                                        _TMR2 001A  
                                      _WPUA 020C                                        _WPUB 020D  
                              __CFG_WRT$OFF 0000                               __CFG_FCMEN$ON 0000  
                                      _main 0217                                        fsr0h 0005  
                                      fsr1h 0007                                        fsr0l 0004  
                                      fsr1l 0006                                        btemp 007E  
                             __CFG_BOREN$ON 0000                                        start 0023  
                ??_TMR1_SetInterruptHandler 007B                               __CFG_MCLRE$ON 0000  
                            _Timer500msFlag 0078                           Chata@ChatterCount 0076  
            __size_of_OSCILLATOR_Initialize 0007                         __size_of_IOCBF0_ISR 000C  
                       __size_of_IOCBF1_ISR 000C                         __size_of_IOCBF2_ISR 000D  
             __end_of_OSCILLATOR_Initialize 0292                                       ?_main 0079  
                             __CFG_WDTE$OFF 0000                                       _T1CON 0018  
                                     _T2CON 001C                                       i1l151 0021  
                                     i1l143 000D                                       i1l304 00D5  
                                     i1l322 015B                                       i1l146 0019  
                                     i1l319 013A                                       i1l289 0076  
                            ?_OutputProcess 0079                                       _TMR1H 0017  
                                     _TMR1L 0016                                       _TRISA 008C  
                                     _TRISB 008D                                       _Chata 02CE  
                          __end_of_TMR1_ISR 025D                            __end_of_TMR2_ISR 02BB  
                   __end_of_PIN_MANAGER_IOC 0207                              _WDT_Initialize 02BB  
                   __end_of_TMR1_Initialize 01E3                                       pclath 000A  
                                     status 0003                                       wtemp0 007E  
                           _TMR1_WriteTimer 0235                             __initialization 0025  
                              __end_of_main 0226                     __end_of_TMR2_Initialize 01F5  
               ?_INTERRUPT_InterruptManager 0079                    _TMR2_SetInterruptHandler 0298  
                                    ??_main 007B                              __CFG_PLLEN$OFF 0000  
                   _IOCBF0_InterruptHandler 0074                                      ?_Chata 0079  
                    __end_of_WDT_Initialize 02BF                ??_IOCBF2_SetInterruptHandler 007B  
                                    _ANSELA 018C                                      _ANSELB 018D  
                                    _BORCON 0116                                      _T1GCON 0019  
                   TMR1_WriteTimer@timerVal 0079                                      i1l2034 008C  
                                    i1l2036 00EB                                      i1l2038 0150  
                                    i1l1520 0043                                      i1l1610 011D  
                                    i1l1604 010E                                      i1l1532 0054  
                                    i1l1614 0129                                      i1l1534 0059  
                                    i1l1624 013F                                      i1l1608 0114  
                                    i1l1528 0050                                      i1l1552 0084  
                                    i1l1722 0266                                      i1l1570 00B3  
                                    i1l1538 0065                                      i1l1554 0097  
                                    i1l1716 0272                                      i1l1740 023F  
                                    i1l1628 0148                                      i1l1572 00B8  
                                    i1l1548 007B                                      i1l1566 00AF  
                                    i1l1558 00A2                                      i1l1590 00E3  
                                    i1l1728 024E                                      i1l1576 00C4  
                                    i1l1592 00F6                                      i1l1762 0201  
                                    i1l1586 00DA                                      i1l1596 0101  
                                    i1l1758 01FB                                      _OSCCON 0099  
                                    _WDTCON 0097                               ?_InputProcess 0079  
                            __CFG_PWRTE$OFF 0000        __end_of_TMR1_DefaultInterruptHandler 02CE  
     __size_of_TMR1_DefaultInterruptHandler 0003                _TMR1_DefaultInterruptHandler 02CB  
                            __CFG_STVREN$ON 0000                             ??_OutputProcess 007B  
       __size_of_IOCBF2_SetInterruptHandler 0006                             ?_WDT_Initialize 0079  
  TMR2_SetInterruptHandler@InterruptHandler 003E    TMR1_SetInterruptHandler@InterruptHandler 003E  
IOCBF2_SetInterruptHandler@InterruptHandler 003E  IOCBF1_SetInterruptHandler@InterruptHandler 003E  
IOCBF0_SetInterruptHandler@InterruptHandler 003E                            ?_PIN_MANAGER_IOC 0079  
                   __end_of_TMR1_WriteTimer 0244                                ??_IOCBF0_ISR 0079  
                              ??_IOCBF1_ISR 0079                                ??_IOCBF2_ISR 0079  
                     __end_of_TMR1_CallBack 028B                            ?_TMR1_Initialize 0079  
                         _SYSTEM_Initialize 0226                              ??_InputProcess 007B  
                   __end_of__initialization 0033                       __end_of_TMR2_CallBack 0280  
                        ?_SYSTEM_Initialize 0079                               __end_of_Chata 02CF  
                            __pcstackCOMMON 0079                                __pidataBANK0 01B3  
                       ??_SYSTEM_Initialize 007B                                   ?_TMR1_ISR 0079  
                                 ?_TMR2_ISR 0079               ?_TMR1_DefaultInterruptHandler 0079  
    __end_of_IOCBF0_DefaultInterruptHandler 02CB     __size_of_IOCBF0_DefaultInterruptHandler 0004  
            _IOCBF0_DefaultInterruptHandler 02C7                            ?_TMR2_Initialize 0079  
                        __end_of_IOCBF0_ISR 0275                          __end_of_IOCBF1_ISR 0269  
                        __end_of_IOCBF2_ISR 0251                              _OPTION_REGbits 0095  
                                   ??_Chata 007B                 ?_IOCBF1_SetInterruptHandler 003E  
                 __end_of_SYSTEM_Initialize 0235                                  __pnvCOMMON 0070  
          ??_IOCBF1_DefaultInterruptHandler 0079             ?_IOCBF1_DefaultInterruptHandler 0079  
                   _IOCBF1_InterruptHandler 0072                                  __pmaintext 0217  
                                ??_TMR1_ISR 007B                                  ??_TMR2_ISR 007B  
                                __pintentry 0004                                     _APFCON0 011D  
                                   _APFCON1 011E          __end_of_IOCBF2_SetInterruptHandler 02AA  
                _IOCBF2_SetInterruptHandler 02A4                                     _OSCTUNE 0098  
                          ?_TMR1_WriteTimer 0079                  ??_TMR2_SetInterruptHandler 007B  
                                   __ptext1 0226                                     __ptext2 02BB  
                                   __ptext3 01E3                                     __ptext4 0298  
                                   __ptext5 01CB                                     __ptext6 029E  
                                   __ptext7 015C                                     __ptext8 02A4  
                                   __ptext9 02AA                        __end_of_InputProcess 01B3  
            ??_TMR1_DefaultInterruptHandler 0079                                   _T1CONbits 0018  
                     _OSCILLATOR_Initialize 028B                                   _T2CONbits 001C  
         __size_of_TMR1_SetInterruptHandler 0006                    ??_PIN_MANAGER_Initialize 007B  
                 ?_TMR1_SetInterruptHandler 003E                                   _IOCBFbits 0396  
                                 _IOCBNbits 0395                                   _IOCBPbits 0394  
                __size_of_SYSTEM_Initialize 000F                        end_of_initialization 0033  
                                   init_ram 0292                                     initloop 0293  
                          ??_WDT_Initialize 007B                                   _PORTBbits 000D  
                          __CFG_FOSC$INTOSC 0000                     _IOCBF2_InterruptHandler 003C  
              ??_IOCBF0_SetInterruptHandler 007B        __end_of_TMR2_DefaultInterruptHandler 015C  
     __size_of_TMR2_DefaultInterruptHandler 0125                _TMR2_DefaultInterruptHandler 0037  
                         __size_of_TMR1_ISR 000C                           __size_of_TMR2_ISR 0005  
       __size_of_IOCBF0_SetInterruptHandler 0006                      ?_OSCILLATOR_Initialize 0079  
                             _Timer10msFlag 0077                       __end_of_OutputProcess 0217  
                       start_initialization 0025             __size_of_PIN_MANAGER_Initialize 0038  
                  __size_of_PIN_MANAGER_IOC 0012                    __size_of_TMR1_Initialize 0018  
                     __size_of_InputProcess 001F                                 __pdataBANK0 0020  
             ?_TMR2_DefaultInterruptHandler 0079                      __size_of_TMR1_CallBack 000B  
    __end_of_IOCBF1_DefaultInterruptHandler 02C7     __size_of_IOCBF1_DefaultInterruptHandler 0004  
            _IOCBF1_DefaultInterruptHandler 02C3                      __size_of_TMR2_CallBack 000B  
                               __pbssCOMMON 0076                                   ___latbits 0001  
                             __pcstackBANK0 003E                    __size_of_TMR2_Initialize 0012  
               ?_IOCBF2_SetInterruptHandler 003E                                _InputProcess 0194  
                                 __pnvBANK0 0038                      _PIN_MANAGER_Initialize 015C  
          ??_IOCBF2_DefaultInterruptHandler 0079             ?_IOCBF2_DefaultInterruptHandler 0079  
          __end_of_TMR1_SetInterruptHandler 02A4                ??_INTERRUPT_InterruptManager 007B  
                            __size_of_Chata 0001          __end_of_IOCBF0_SetInterruptHandler 02B6  
                _IOCBF0_SetInterruptHandler 02B0                               _TMR1_CallBack 0280  
                                  _LATAbits 010C                               _TMR2_CallBack 0275  
                                  _PIE1bits 0091                    __size_of_TMR1_WriteTimer 000F  
       __size_of_INTERRUPT_InterruptManager 001F                                    _PIR1bits 0011  
                                  _TMR1_ISR 0251                                    _TMR2_ISR 02B6  
                         ??_PIN_MANAGER_IOC 0079                           ??_TMR1_Initialize 007B  
            ??_TMR2_DefaultInterruptHandler 0079           __size_of_TMR2_SetInterruptHandler 0006  
                 ?_TMR2_SetInterruptHandler 003E                              ?_TMR1_CallBack 0079  
                         ??_TMR2_Initialize 007B                              ?_TMR2_CallBack 0079  
                   ??_OSCILLATOR_Initialize 007B                    _TMR1_SetInterruptHandler 029E  
                     _TMR1_InterruptHandler 003A                                    __ptext10 02B0  
                                  __ptext11 028B                                    __ptext20 0235  
                                  __ptext12 0207                                    __ptext21 0280  
                                  __ptext13 0194                                  _T1GCONbits 0019  
                                  __ptext22 02CB                                    __ptext14 02CE  
                                  __ptext23 01F5                                    __ptext24 0244  
                                  __ptext16 02B6                                    __ptext25 02BF  
                                  __ptext17 0275                                    __ptext26 025D  
                                  __ptext18 0037                                    __ptext27 02C3  
                                  __ptext19 0251                                    __ptext28 0269  
                                  __ptext29 02C7                ??_IOCBF1_SetInterruptHandler 007B  
                                _IOCBF0_ISR 0269                                  _IOCBF1_ISR 025D  
                                _IOCBF2_ISR 0244                               __size_of_main 000F  
                                  int$flags 007E          __end_of_INTERRUPT_InterruptManager 0023  
                _INTERRUPT_InterruptManager 0004                           ??_TMR1_WriteTimer 007B  
       __size_of_IOCBF1_SetInterruptHandler 0006                                  _INTCONbits 000B  
                           ??_TMR1_CallBack 0079                     __size_of_WDT_Initialize 0004  
                                  intlevel1 0000                             ??_TMR2_CallBack 007B  
                   ?_PIN_MANAGER_Initialize 0079                           __CFG_CLKOUTEN$OFF 0000  
                    __size_of_OutputProcess 0010      __end_of_IOCBF2_DefaultInterruptHandler 02C3  
   __size_of_IOCBF2_DefaultInterruptHandler 0004              _IOCBF2_DefaultInterruptHandler 02BF  
               ?_IOCBF0_SetInterruptHandler 003E                                 ?_IOCBF0_ISR 0079  
                               ?_IOCBF1_ISR 0079                                 ?_IOCBF2_ISR 0079  
            __end_of_PIN_MANAGER_Initialize 0194            ??_IOCBF0_DefaultInterruptHandler 0079  
           ?_IOCBF0_DefaultInterruptHandler 0079                             _PIN_MANAGER_IOC 01F5  
                     _TMR2_InterruptHandler 0038                             _TMR1_Initialize 01CB  
